(dp1
S'output'
p2
S"<type 'exceptions.SyntaxError'> Not supported"
p3
sS'layer'
p4
S'/Applications/web2py.app/Contents/Resources/applications/fbmayor/models/fb_place.py'
p5
sS'code'
p6
S'# coding: utf8\n#fbpl = DAL("sqlite://storage.sqlite", adapter_args=dict(foreign_keys=False))\nfbpl = DAL("mongodb://localhost/fbmayor", adapter_args=dict(foreign_keys=False), db_codec=\'utf8\')\nfbpl.define_table(\'people\',Field(\'uid\',unique=True),Field(\'name\'),Field(\'gender\'),Field(\'hometown\'),Field(\'loc_id\'),Field(\'loc_name\'),Field(\'updated_time\'),Field(\'locale\'))\n\n\nfbpl.define_table(\'post\', Field(\'fid\',unique=True), Field(\'message\'), Field(\'from_id\'), Field(\'from_name\'), Field(\'created_time\', \'datetime\'),Field(\'object_id\'), Field(\'ptype\'), Field(\'status_type\'), Field(\'link\'), Field(\'picture\'),  Field(\'updated_time\',\'datetime\'), Field(\'shares_count\',\'integer\',default=0), Field(\'likes_count\',\'integer\',default=0), Field(\'comment_count\',\'integer\', default=0), Field(\'shares_count48\',\'integer\',default=0), Field(\'likes_count48\',\'integer\',default=0), Field(\'comment_count48\',\'integer\', default=0), Field(\'likes_sincelastupdate\',\'integer\',default=0),  Field(\'shares_sincelastupdate\',\'integer\',default=0), Field(\'comment_sincelastupdate\',\'integer\',default=0), Field(\'team\'), Field(\'placeid\'), Field(\'placename\'),Field(\'fscore\',\'double\',default=0),Field(\'tscore\',\'double\',default=0))\n\nfbpl.define_table(\'post_counts\', Field(\'fid\'), Field(\'date_time\', \'datetime\'), Field(\'shares_count\',\'integer\'), Field(\'updated_time\', \'datetime\'), Field(\'likes_count\',\'integer\'), Field(\'comment_count\',\'integer\'))\nfbpl.executesql(\'CREATE INDEX myidx ON post_counts (date_time);\')\n\nfbpl.define_table(\'page\',Field(\'about\'),Field(\'can_post\'),Field(\'category\'),Field(\'is_published\'),Field(\'pageid\',unique=True),Field(\'name\'),Field(\'link\'),Field(\'description\'),Field(\'updated_time\'),Field(\'cover_id\'),Field(\'cover_source\'),Field(\'source\'),Field(\'locale\'),Field(\'website\'),Field(\'checkins\',\'integer\',default=0),Field(\'likes\',\'integer\',default=0),Field(\'were_here_count\',\'integer\',default=0),Field(\'talking_about_count\',\'integer\',default=0) ,Field(\'checkins24\',\'integer\',default=0),Field(\'likes24\',\'integer\',default=0),Field(\'were_here_count24\',\'integer\',default=0),Field(\'talking_about_count24\',\'integer\',default=0) ,Field(\'likes_sincelastupdate\',\'integer\',default=0),  Field(\'checkins_sincelastupdate\',\'integer\',default=0),  Field(\'were_here_sincelastupdate\',\'integer\',default=0), Field(\'talking_about_sincelastupdate\',\'integer\',default=0),  Field(\'picture\'), Field(\'team\') )\n\nfbpl.page.pageid.requires=IS_NOT_EMPTY()\nfbpl.page.team.requires=IS_IN_SET((\'\xe9\x80\xa3\xe5\x8b\x9d\xe6\x96\x87\',\'\xe6\x9f\xaf\xe6\x96\x87\xe5\x93\xb2\',\'\xe4\xb8\x81\xe5\xae\x88\xe4\xb8\xad\',\'\xe9\xa1\xa7\xe7\xab\x8b\xe9\x9b\x84\',\'All\'))\n\nfbpl.define_table(\'team_counts\', Field(\'team\'),Field(\'date_time\', \'datetime\'), Field(\'checkins\',\'integer\'),Field(\'likes\',\'integer\'),Field(\'were_here_count\',\'integer\'),Field(\'talking_about_count\',\'integer\'),Field(\'checkins24\',\'integer\'),Field(\'likes24\',\'integer\'),Field(\'were_here_count24\',\'integer\'),Field(\'talking_about_count24\',\'integer\'), Field(\'total_active_posts\',\'integer\'), Field(\'total_post_likes\',\'integer\'), Field(\'total_post_comments\',\'integer\'), Field(\'total_post_shares\',\'integer\'),\nField(\'hour48_active_posts\',\'integer\'), Field(\'hour48_post_likes\',\'integer\'), Field(\'hour48_post_comments\',\'integer\'), Field(\'hour48_post_shares\',\'integer\'), Field(\'hour48_active_stories\',\'integer\'), Field(\'hour48_story_likes\',\'integer\'), Field(\'hour48_story_comments\',\'integer\'), Field(\'hour48_story_shares\',\'integer\'), Field(\'hour48_active_links\',\'integer\'), Field(\'hour48_link_likes\',\'integer\'), Field(\'hour48_link_comments\',\'integer\'), Field(\'hour48_link_shares\',\'integer\'), Field(\'hour48_active_videos\',\'integer\'), Field(\'hour48_video_likes\',\'integer\'), Field(\'hour48_video_comments\',\'integer\'), Field(\'hour48_video_shares\',\'integer\'))\n\nfbpl.define_table(\'dailySum\', Field(\'date\', \'datetime\'), Field(\'dailyPagelikes\',\'integer\'), Field(\'talkingAbout\',\'integer\'), Field(\'dailyPosts\',\'integer\'),Field(\'dailyPostLikes\',\'integer\'), Field(\'dailyPostComments\',\'integer\'), Field(\'dailyPostShares\',\'integer\'), Field(\'team\'))\n\nfbpl.team_counts.team.requires=IS_IN_SET((\'\xe9\x80\xa3\xe5\x8b\x9d\xe6\x96\x87\',\'\xe6\x9f\xaf\xe6\x96\x87\xe5\x93\xb2\',\'\xe4\xb8\x81\xe5\xae\x88\xe4\xb8\xad\',\'\xe9\xa1\xa7\xe7\xab\x8b\xe9\x9b\x84\',\'All\'))\n\nfbpl.define_table(\'page_insights\' , Field(\'pageid\'), Field(\'lifetime_likes\'), Field(\'daily_people_talking\'), Field(\'days28_people_talking\'), Field(\'monthly_people_talking\'), Field(\'end_time\'), Field(\'location_insights\'),Field(\'team\'))\n\n\nfbpl.define_table(\'place\',Field(\'placeid\', unique=True),Field(\'name\'),Field(\'street\'),Field(\'city\'),Field(\'state\'),Field(\'country\'),Field(\'latitude\', \'float\'),Field(\'longitude\',\'float\'),Field(\'category\'),Field(\'category_list\',\'text\'),Field(\'zip\'),Field(\'link\'),Field(\'website\'),Field(\'phone\'),Field(\'description\'),Field(\'old_ids\'),Field(\'mutiple\'), format=\'%(placename)s\')\n\n#fbpl.place.placeid.requires=IS_NOT_EMPTY()\n\nfbpl.place.placeid.requires=IS_NOT_EMPTY()\nfbpl.place.name.requires=IS_NOT_EMPTY()\nfbpl.place.latitude.requires=IS_NOT_EMPTY()\nfbpl.place.longitude.requires=IS_NOT_EMPTY()\nfbpl.place.category.requires=IS_NOT_EMPTY()\n#fbpl.place.old_ids.requires=IS_IN_DB(fbpl, fbpl.social_counts.placeid)\nfbpl.place.link.requires=IS_URL()\n\nfbpl.define_table(\'social_counts\', Field(\'placeid\',fbpl.place),Field(\'date_time\', \'datetime\'), Field(\'checkins\',\'integer\'),Field(\'likes\',\'integer\'),Field(\'were_here_count\',\'integer\'),Field(\'talking_about_count\',\'integer\'), Field(\'updated_time\', \'datetime\') )\n\nfbpl.social_counts.placeid.requires=IS_NOT_EMPTY()\nfbpl.social_counts.placeid.requires=IS_IN_DB(fbpl, fbpl.place.placeid)\nfbpl.social_counts.checkins.requires=IS_NOT_EMPTY()\nfbpl.social_counts.likes.requires=IS_NOT_EMPTY()\nfbpl.social_counts.were_here_count.requires=IS_NOT_EMPTY()\n\n\nfbpl.define_table(\'graphAPI_Error\', Field(\'placeid\',fbpl.place),Field(\'date_time\', \'datetime\', default=request.now), Field(\'code\'),Field(\'error_msg\'))\n\nfbpl.define_table(\'merged_place\', Field(\'placeid\',fbpl.place),Field(\'date_time\', \'datetime\', default=request.now), Field(\'merge_to\'),Field(\'name\'),Field(\'latitude\'),Field(\'longitude\'),Field(\'category\'),Field(\'category_list\',\'text\'),Field(\'zip\'),Field(\'link\'),Field(\'old_ids\'))\n\nfbpl.define_table(\'update_log\', Field(\'start_date_time\', \'datetime\', default=request.now),Field(\'end_date_time\', \'datetime\') )\n\n\n\n\n\n\nfbpl.graphAPI_Error.placeid.requires=IS_NOT_EMPTY()\n\nfbpl.merged_place.placeid.requires=IS_NOT_EMPTY()\nfbpl.merged_place.merge_to.requires=IS_NOT_EMPTY()\n\n\n# coding: utf8\n\n\nfbpl.define_table(\'event\',Field(\'eventid\', unique=True),Field(\'description\'),Field(\'end_time\'), Field(\'timezone\'), Field(\'location\'), Field(\'name\'), Field(\'ownerid\'), Field(\'ownername\'),Field(\'picture\'), Field(\'privacy\'), Field(\'start_time\'), Field(\'ticket_uri\'), Field(\'updated_time\'), Field(\'venuename\'),Field(\'venueid\'), Field(\'country\'), Field(\'city\'), Field(\'state\'), Field(\'street\'), Field(\'zipcode\') , Field(\'longitude\'), Field(\'latitude\'), Field(\'is_date_only\'))\n\nfbpl.define_table(\'event_counts\', Field(\'eventid\'), Field(\'date_time\', \'datetime\'), Field(\'invited_count\',\'integer\'), Field(\'attending_count\',\'integer\'), Field(\'maybe_count\',\'integer\'), Field(\'declined_count\',\'integer\'),Field(\'noreply_count\',\'integer\'), Field(\'updated_time\'))\n'
p7
sS'snapshot'
p8
(dp9
S'exception'
p10
(dp11
S'__getslice__'
p12
S"<method-wrapper '__getslice__' of exceptions.SyntaxError object>"
p13
sS'text'
p14
S'None'
p15
sS'__str__'
p16
S"<method-wrapper '__str__' of exceptions.SyntaxError object>"
p17
sS'__reduce__'
p18
S'<built-in method __reduce__ of exceptions.SyntaxError object>'
p19
sS'__dict__'
p20
S'{}'
p21
sS'__sizeof__'
p22
S'<built-in method __sizeof__ of exceptions.SyntaxError object>'
p23
sS'__init__'
p24
S"<method-wrapper '__init__' of exceptions.SyntaxError object>"
p25
sS'__setattr__'
p26
S"<method-wrapper '__setattr__' of exceptions.SyntaxError object>"
p27
sS'__reduce_ex__'
p28
S'<built-in method __reduce_ex__ of exceptions.SyntaxError object>'
p29
sS'__new__'
p30
S'<built-in method __new__ of type object>'
p31
sS'__format__'
p32
S'<built-in method __format__ of exceptions.SyntaxError object>'
p33
sS'__class__'
p34
S"<type 'exceptions.SyntaxError'>"
p35
sS'filename'
p36
S'None'
p37
sS'lineno'
p38
S'None'
p39
sS'msg'
p40
S"'Not supported'"
p41
sS'__doc__'
p42
S"'Invalid syntax.'"
p43
sS'__getitem__'
p44
S"<method-wrapper '__getitem__' of exceptions.SyntaxError object>"
p45
sS'__setstate__'
p46
S'<built-in method __setstate__ of exceptions.SyntaxError object>'
p47
sS'__getattribute__'
p48
S"<method-wrapper '__getattribute__' of exceptions.SyntaxError object>"
p49
sS'print_file_and_line'
p50
S'None'
p51
sS'args'
p52
S"('Not supported',)"
p53
sS'__subclasshook__'
p54
S'<built-in method __subclasshook__ of type object>'
p55
sS'offset'
p56
S'None'
p57
sS'__unicode__'
p58
S'<built-in method __unicode__ of exceptions.SyntaxError object>'
p59
sS'__delattr__'
p60
S"<method-wrapper '__delattr__' of exceptions.SyntaxError object>"
p61
sS'__repr__'
p62
S"<method-wrapper '__repr__' of exceptions.SyntaxError object>"
p63
sS'__hash__'
p64
S"<method-wrapper '__hash__' of exceptions.SyntaxError object>"
p65
ssS'evalue'
p66
S'Not supported'
p67
sS'request'
p68
cgluon.html
XML_unpickle
p69
(S's\xd8V\x00\x00<div><table><tr><td style="font-weight:bold;vertical-align:top;">ajax</td><td style="vertical-align:top;">:</td><td><div>False</div></td></tr><tr><td style="font-weight:bold;vertical-align:top;">application</td><td style="vertical-align:top;">:</td><td><div>fbmayor</div></td></tr><tr><td style="font-weight:bold;vertical-align:top;">args</td><td style="vertical-align:top;">:</td><td><div><table></table></div></td></tr><tr><td style="font-weight:bold;vertical-align:top;">cid</td><td style="vertical-align:top;">:</td><td><div>None</div></td></tr><tr><td style="font-weight:bold;vertical-align:top;">client</td><td style="vertical-align:top;">:</td><td><div>127.0.0.1</div></td></tr><tr><td style="font-weight:bold;vertical-align:top;">controller</td><td style="vertical-align:top;">:</td><td><div>graphAPI</div></td></tr><tr><td style="font-weight:bold;vertical-align:top;">cookies</td><td style="vertical-align:top;">:</td><td><div><table><tr><td style="font-weight:bold;vertical-align:top;">session_id_admin</td><td style="vertical-align:top;">:</td><td><div>127.0.0.1-2a34b6e8-7adc-42f3-a1be-7dc754917077<table><tr><td style="font-weight:bold;vertical-align:top;">comment</td><td style="vertical-align:top;">:</td><td><div></div></td></tr><tr><td style="font-weight:bold;vertical-align:top;">domain</td><td style="vertical-align:top;">:</td><td><div></div></td></tr><tr><td style="font-weight:bold;vertical-align:top;">expires</td><td style="vertical-align:top;">:</td><td><div></div></td></tr><tr><td style="font-weight:bold;vertical-align:top;">httponly</td><td style="vertical-align:top;">:</td><td><div></div></td></tr><tr><td style="font-weight:bold;vertical-align:top;">max-age</td><td style="vertical-align:top;">:</td><td><div></div></td></tr><tr><td style="font-weight:bold;vertical-align:top;">path</td><td style="vertical-align:top;">:</td><td><div></div></td></tr><tr><td style="font-weight:bold;vertical-align:top;">secure</td><td style="vertical-align:top;">:</td><td><div></div></td></tr><tr><td style="font-weight:bold;vertical-align:top;">version</td><td style="vertical-align:top;">:</td><td><div></div></td></tr></table></div></td></tr><tr><td style="font-weight:bold;vertical-align:top;">session_id_fbmayor</td><td style="vertical-align:top;">:</td><td><div>127.0.0.1-51a554af-52fd-4e45-9f59-38dfe11ae747<table><tr><td style="font-weight:bold;vertical-align:top;">comment</td><td style="vertical-align:top;">:</td><td><div></div></td></tr><tr><td style="font-weight:bold;vertical-align:top;">domain</td><td style="vertical-align:top;">:</td><td><div></div></td></tr><tr><td style="font-weight:bold;vertical-align:top;">expires</td><td style="vertical-align:top;">:</td><td><div></div></td></tr><tr><td style="font-weight:bold;vertical-align:top;">httponly</td><td style="vertical-align:top;">:</td><td><div></div></td></tr><tr><td style="font-weight:bold;vertical-align:top;">max-age</td><td style="vertical-align:top;">:</td><td><div></div></td></tr><tr><td style="font-weight:bold;vertical-align:top;">path</td><td style="vertical-align:top;">:</td><td><div></div></td></tr><tr><td style="font-weight:bold;vertical-align:top;">secure</td><td style="vertical-align:top;">:</td><td><div></div></td></tr><tr><td style="font-weight:bold;vertical-align:top;">version</td><td style="vertical-align:top;">:</td><td><div></div></td></tr></table></div></td></tr></table></div></td></tr><tr><td style="font-weight:bold;vertical-align:top;">env</td><td style="vertical-align:top;">:</td><td><div><table><tr><td style="font-weight:bold;vertical-align:top;">HTTP_ACCEPT</td><td style="vertical-align:top;">:</td><td><div>text/html,application/xhtml+xml,application/xml;q=0.9,*/*;q=0.8</div></td></tr><tr><td style="font-weight:bold;vertical-align:top;">HTTP_ACCEPT_ENCODING</td><td style="vertical-align:top;">:</td><td><div>gzip, deflate</div></td></tr><tr><td style="font-weight:bold;vertical-align:top;">HTTP_ACCEPT_LANGUAGE</td><td style="vertical-align:top;">:</td><td><div>en-us</div></td></tr><tr><td style="font-weight:bold;vertical-align:top;">HTTP_CONNECTION</td><td style="vertical-align:top;">:</td><td><div>keep-alive</div></td></tr><tr><td style="font-weight:bold;vertical-align:top;">HTTP_COOKIE</td><td style="vertical-align:top;">:</td><td><div>session_id_admin=127.0.0.1-2a34b6e8-7adc-42f3-a1be-7dc754917077; session_id_fbmayor=127.0.0.1-51a554af-52fd-4e45-9f59-38dfe11ae747</div></td></tr><tr><td style="font-weight:bold;vertical-align:top;">HTTP_DNT</td><td style="vertical-align:top;">:</td><td><div>1</div></td></tr><tr><td style="font-weight:bold;vertical-align:top;">HTTP_HOST</td><td style="vertical-align:top;">:</td><td><div>127.0.0.1:8088</div></td></tr><tr><td style="font-weight:bold;vertical-align:top;">HTTP_USER_AGENT</td><td style="vertical-align:top;">:</td><td><div>Mozilla/5.0 (Macintosh; Intel Mac OS X 10_9_2) AppleWebKit/537.75.14 (KHTML, like Gecko) Version/7.0.3 Safari/537.75.14</div></td></tr><tr><td style="font-weight:bold;vertical-align:top;">PATH_INFO</td><td style="vertical-align:top;">:</td><td><div>/fbmayor/graphAPI/test.json</div></td></tr><tr><td style="font-weight:bold;vertical-align:top;">QUERY_STRING</td><td style="vertical-align:top;">:</td><td><div></div></td></tr><tr><td style="font-weight:bold;vertical-align:top;">REMOTE_ADDR</td><td style="vertical-align:top;">:</td><td><div>127.0.0.1</div></td></tr><tr><td style="font-weight:bold;vertical-align:top;">REMOTE_PORT</td><td style="vertical-align:top;">:</td><td><div>52900</div></td></tr><tr><td style="font-weight:bold;vertical-align:top;">REQUEST_METHOD</td><td style="vertical-align:top;">:</td><td><div>GET</div></td></tr><tr><td style="font-weight:bold;vertical-align:top;">SCRIPT_NAME</td><td style="vertical-align:top;">:</td><td><div></div></td></tr><tr><td style="font-weight:bold;vertical-align:top;">SERVER_NAME</td><td style="vertical-align:top;">:</td><td><div>maclogair.local</div></td></tr><tr><td style="font-weight:bold;vertical-align:top;">SERVER_PORT</td><td style="vertical-align:top;">:</td><td><div>8088</div></td></tr><tr><td style="font-weight:bold;vertical-align:top;">SERVER_PROTOCOL</td><td style="vertical-align:top;">:</td><td><div>HTTP/1.1</div></td></tr><tr><td style="font-weight:bold;vertical-align:top;">SERVER_SOFTWARE</td><td style="vertical-align:top;">:</td><td><div>Rocket 1.2.6</div></td></tr><tr><td style="font-weight:bold;vertical-align:top;">app_folders</td><td style="vertical-align:top;">:</td><td><div>set([&#x27;/Applications/web2py.app/Contents/Resources/applications/fbmayor/&#x27;, &#x27;/Applications/web2py.app/Contents/Resources/applications/fb_event/&#x27;, &#x27;/Applications/web2py.app/Contents/Resources/applications/admin/&#x27;, &#x27;/Applications/web2py.app/Contents/Resources/applications/welcome/&#x27;])</div></td></tr><tr><td style="font-weight:bold;vertical-align:top;">applications_parent</td><td style="vertical-align:top;">:</td><td><div>/Applications/web2py.app/Contents/Resources</div></td></tr><tr><td style="font-weight:bold;vertical-align:top;">cmd_args</td><td style="vertical-align:top;">:</td><td><div><table></table></div></td></tr><tr><td style="font-weight:bold;vertical-align:top;">cmd_options</td><td style="vertical-align:top;">:</td><td><div>&lt;Values at 0x104201d40: {&#x27;verbose&#x27;: False, &#x27;ip&#x27;: &#x27;127.0.0.1&#x27;, &#x27;debuglevel&#x27;: 30, &#x27;with_scheduler&#x27;: False, &#x27;ips&#x27;: [&#x27;fe80::60c:ceff:fee3:df4a%en0&#x27;, &#x27;192.168.100.4&#x27;], &#x27;shutdown_timeout&#x27;: 5, &#x27;taskbar&#x27;: False, &#x27;with_coverage&#x27;: False, &#x27;port&#x27;: 8000, &#x27;maxthreads&#x27;: None, &#x27;softcron&#x27;: False, &#x27;server_name&#x27;: &#x27;maclogair.local&#x27;, &#x27;bpython&#x27;: False, &#x27;nogui&#x27;: False, &#x27;pid_filename&#x27;: &#x27;httpserver.pid&#x27;, &#x27;extcron&#x27;: False, &#x27;runcron&#x27;: False, &#x27;run_system_tests&#x27;: False, &#x27;test&#x27;: None, &#x27;folder&#x27;: &#x27;/Applications/web2py.app/Contents/Resources&#x27;, &#x27;config&#x27;: &#x27;&#x27;, &#x27;minthreads&#x27;: None, &#x27;shell&#x27;: None, &#x27;run&#x27;: &#x27;&#x27;, &#x27;log_filename&#x27;: &#x27;httpserver.log&#x27;, &#x27;profiler_dir&#x27;: None, &#x27;args&#x27;: [&#x27;&#x27;], &#x27;socket_timeout&#x27;: 5, &#x27;ssl_ca_certificate&#x27;: None, &#x27;scheduler&#x27;: None, &#x27;interfaces&#x27;: None, &#x27;ssl_private_key&#x27;: &#x27;&#x27;, &#x27;scheduler_groups&#x27;: None, &#x27;password&#x27;: &#x27;&lt;ask&gt;&#x27;, &#x27;request_queue_size&#x27;: 5, &#x27;ssl_certificate&#x27;: &#x27;&#x27;, &#x27;cronjob&#x27;: False, &#x27;numthreads&#x27;: None, &#x27;quiet&#x27;: False, &#x27;import_models&#x27;: False, &#x27;timeout&#x27;: 10, &#x27;plain&#x27;: False, &#x27;nobanner&#x27;: False}&gt;</div></td></tr><tr><td style="font-weight:bold;vertical-align:top;">db_sessions</td><td style="vertical-align:top;">:</td><td><div>set([])</div></td></tr><tr><td style="font-weight:bold;vertical-align:top;">debugging</td><td style="vertical-align:top;">:</td><td><div>True</div></td></tr><tr><td style="font-weight:bold;vertical-align:top;">gluon_parent</td><td style="vertical-align:top;">:</td><td><div>/Applications/web2py.app/Contents/Resources</div></td></tr><tr><td style="font-weight:bold;vertical-align:top;">http_accept</td><td style="vertical-align:top;">:</td><td><div>text/html,application/xhtml+xml,application/xml;q=0.9,*/*;q=0.8</div></td></tr><tr><td style="font-weight:bold;vertical-align:top;">http_accept_encoding</td><td style="vertical-align:top;">:</td><td><div>gzip, deflate</div></td></tr><tr><td style="font-weight:bold;vertical-align:top;">http_accept_language</td><td style="vertical-align:top;">:</td><td><div>en-us</div></td></tr><tr><td style="font-weight:bold;vertical-align:top;">http_connection</td><td style="vertical-align:top;">:</td><td><div>keep-alive</div></td></tr><tr><td style="font-weight:bold;vertical-align:top;">http_cookie</td><td style="vertical-align:top;">:</td><td><div>session_id_admin=127.0.0.1-2a34b6e8-7adc-42f3-a1be-7dc754917077; session_id_fbmayor=127.0.0.1-51a554af-52fd-4e45-9f59-38dfe11ae747</div></td></tr><tr><td style="font-weight:bold;vertical-align:top;">http_dnt</td><td style="vertical-align:top;">:</td><td><div>1</div></td></tr><tr><td style="font-weight:bold;vertical-align:top;">http_host</td><td style="vertical-align:top;">:</td><td><div>127.0.0.1:8088</div></td></tr><tr><td style="font-weight:bold;vertical-align:top;">http_user_agent</td><td style="vertical-align:top;">:</td><td><div>Mozilla/5.0 (Macintosh; Intel Mac OS X 10_9_2) AppleWebKit/537.75.14 (KHTML, like Gecko) Version/7.0.3 Safari/537.75.14</div></td></tr><tr><td style="font-weight:bold;vertical-align:top;">is_jython</td><td style="vertical-align:top;">:</td><td><div>False</div></td></tr><tr><td style="font-weight:bold;vertical-align:top;">is_pypy</td><td style="vertical-align:top;">:</td><td><div>False</div></td></tr><tr><td style="font-weight:bold;vertical-align:top;">is_source</td><td style="vertical-align:top;">:</td><td><div>True</div></td></tr><tr><td style="font-weight:bold;vertical-align:top;">local_hosts</td><td style="vertical-align:top;">:</td><td><div><table><tr><td><div>192.168.100.4</div></td></tr><tr><td><div>::ffff:127.0.0.1</div></td></tr><tr><td><div>::1</div></td></tr><tr><td><div>fe80::60c:ceff:fee3:df4a%en0</div></td></tr><tr><td><div>maclogair.local</div></td></tr><tr><td><div>127.0.0.1</div></td></tr></table></div></td></tr><tr><td style="font-weight:bold;vertical-align:top;">path_info</td><td style="vertical-align:top;">:</td><td><div>/fbmayor/graphAPI/test.json</div></td></tr><tr><td style="font-weight:bold;vertical-align:top;">query_string</td><td style="vertical-align:top;">:</td><td><div></div></td></tr><tr><td style="font-weight:bold;vertical-align:top;">remote_addr</td><td style="vertical-align:top;">:</td><td><div>127.0.0.1</div></td></tr><tr><td style="font-weight:bold;vertical-align:top;">remote_port</td><td style="vertical-align:top;">:</td><td><div>52900</div></td></tr><tr><td style="font-weight:bold;vertical-align:top;">request_method</td><td style="vertical-align:top;">:</td><td><div>GET</div></td></tr><tr><td style="font-weight:bold;vertical-align:top;">request_uri</td><td style="vertical-align:top;">:</td><td><div>/fbmayor/graphAPI/test.json</div></td></tr><tr><td style="font-weight:bold;vertical-align:top;">script_name</td><td style="vertical-align:top;">:</td><td><div></div></td></tr><tr><td style="font-weight:bold;vertical-align:top;">server_name</td><td style="vertical-align:top;">:</td><td><div>maclogair.local</div></td></tr><tr><td style="font-weight:bold;vertical-align:top;">server_port</td><td style="vertical-align:top;">:</td><td><div>8088</div></td></tr><tr><td style="font-weight:bold;vertical-align:top;">server_protocol</td><td style="vertical-align:top;">:</td><td><div>HTTP/1.1</div></td></tr><tr><td style="font-weight:bold;vertical-align:top;">server_software</td><td style="vertical-align:top;">:</td><td><div>Rocket 1.2.6</div></td></tr><tr><td style="font-weight:bold;vertical-align:top;">web2py_path</td><td style="vertical-align:top;">:</td><td><div>/Applications/web2py.app/Contents/Resources</div></td></tr><tr><td style="font-weight:bold;vertical-align:top;">web2py_version</td><td style="vertical-align:top;">:</td><td><div>2.8.2-stable+timestamp.2013.11.28.13.54.07</div></td></tr><tr><td style="font-weight:bold;vertical-align:top;">wsgi.errors</td><td style="vertical-align:top;">:</td><td><div>&lt;open file &#x27;&lt;stderr&gt;&#x27;, mode &#x27;w&#x27; at 0x10028b1e0&gt;</div></td></tr><tr><td style="font-weight:bold;vertical-align:top;">wsgi.file_wrapper</td><td style="vertical-align:top;">:</td><td><div>&lt;class wsgiref.util.FileWrapper at 0x1041be328&gt;</div></td></tr><tr><td style="font-weight:bold;vertical-align:top;">wsgi.input</td><td style="vertical-align:top;">:</td><td><div>&lt;socket._fileobject object at 0x10e0918d0&gt;</div></td></tr><tr><td style="font-weight:bold;vertical-align:top;">wsgi.multiprocess</td><td style="vertical-align:top;">:</td><td><div>False</div></td></tr><tr><td style="font-weight:bold;vertical-align:top;">wsgi.multithread</td><td style="vertical-align:top;">:</td><td><div>True</div></td></tr><tr><td style="font-weight:bold;vertical-align:top;">wsgi.run_once</td><td style="vertical-align:top;">:</td><td><div>False</div></td></tr><tr><td style="font-weight:bold;vertical-align:top;">wsgi.url_scheme</td><td style="vertical-align:top;">:</td><td><div>http</div></td></tr><tr><td style="font-weight:bold;vertical-align:top;">wsgi.version</td><td style="vertical-align:top;">:</td><td><div><table><tr><td><div>1</div></td></tr><tr><td><div>0</div></td></tr></table></div></td></tr><tr><td style="font-weight:bold;vertical-align:top;">wsgi_errors</td><td style="vertical-align:top;">:</td><td><div>&lt;open file &#x27;&lt;stderr&gt;&#x27;, mode &#x27;w&#x27; at 0x10028b1e0&gt;</div></td></tr><tr><td style="font-weight:bold;vertical-align:top;">wsgi_file_wrapper</td><td style="vertical-align:top;">:</td><td><div>&lt;class wsgiref.util.FileWrapper at 0x1041be328&gt;</div></td></tr><tr><td style="font-weight:bold;vertical-align:top;">wsgi_input</td><td style="vertical-align:top;">:</td><td><div>&lt;socket._fileobject object at 0x10e0918d0&gt;</div></td></tr><tr><td style="font-weight:bold;vertical-align:top;">wsgi_multiprocess</td><td style="vertical-align:top;">:</td><td><div>False</div></td></tr><tr><td style="font-weight:bold;vertical-align:top;">wsgi_multithread</td><td style="vertical-align:top;">:</td><td><div>True</div></td></tr><tr><td style="font-weight:bold;vertical-align:top;">wsgi_run_once</td><td style="vertical-align:top;">:</td><td><div>False</div></td></tr><tr><td style="font-weight:bold;vertical-align:top;">wsgi_url_scheme</td><td style="vertical-align:top;">:</td><td><div>http</div></td></tr><tr><td style="font-weight:bold;vertical-align:top;">wsgi_version</td><td style="vertical-align:top;">:</td><td><div><table><tr><td><div>1</div></td></tr><tr><td><div>0</div></td></tr></table></div></td></tr></table></div></td></tr><tr><td style="font-weight:bold;vertical-align:top;">extension</td><td style="vertical-align:top;">:</td><td><div>json</div></td></tr><tr><td style="font-weight:bold;vertical-align:top;">folder</td><td style="vertical-align:top;">:</td><td><div>/Applications/web2py.app/Contents/Resources/applications/fbmayor/</div></td></tr><tr><td style="font-weight:bold;vertical-align:top;">function</td><td style="vertical-align:top;">:</td><td><div>test</div></td></tr><tr><td style="font-weight:bold;vertical-align:top;">global_settings</td><td style="vertical-align:top;">:</td><td><div><table><tr><td style="font-weight:bold;vertical-align:top;">app_folders</td><td style="vertical-align:top;">:</td><td><div>set([&#x27;/Applications/web2py.app/Contents/Resources/applications/fbmayor/&#x27;, &#x27;/Applications/web2py.app/Contents/Resources/applications/fb_event/&#x27;, &#x27;/Applications/web2py.app/Contents/Resources/applications/admin/&#x27;, &#x27;/Applications/web2py.app/Contents/Resources/applications/welcome/&#x27;])</div></td></tr><tr><td style="font-weight:bold;vertical-align:top;">applications_parent</td><td style="vertical-align:top;">:</td><td><div>/Applications/web2py.app/Contents/Resources</div></td></tr><tr><td style="font-weight:bold;vertical-align:top;">cmd_args</td><td style="vertical-align:top;">:</td><td><div><table></table></div></td></tr><tr><td style="font-weight:bold;vertical-align:top;">cmd_options</td><td style="vertical-align:top;">:</td><td><div>&lt;Values at 0x104201d40: {&#x27;verbose&#x27;: False, &#x27;ip&#x27;: &#x27;127.0.0.1&#x27;, &#x27;debuglevel&#x27;: 30, &#x27;with_scheduler&#x27;: False, &#x27;ips&#x27;: [&#x27;fe80::60c:ceff:fee3:df4a%en0&#x27;, &#x27;192.168.100.4&#x27;], &#x27;shutdown_timeout&#x27;: 5, &#x27;taskbar&#x27;: False, &#x27;with_coverage&#x27;: False, &#x27;port&#x27;: 8000, &#x27;maxthreads&#x27;: None, &#x27;softcron&#x27;: False, &#x27;server_name&#x27;: &#x27;maclogair.local&#x27;, &#x27;bpython&#x27;: False, &#x27;nogui&#x27;: False, &#x27;pid_filename&#x27;: &#x27;httpserver.pid&#x27;, &#x27;extcron&#x27;: False, &#x27;runcron&#x27;: False, &#x27;run_system_tests&#x27;: False, &#x27;test&#x27;: None, &#x27;folder&#x27;: &#x27;/Applications/web2py.app/Contents/Resources&#x27;, &#x27;config&#x27;: &#x27;&#x27;, &#x27;minthreads&#x27;: None, &#x27;shell&#x27;: None, &#x27;run&#x27;: &#x27;&#x27;, &#x27;log_filename&#x27;: &#x27;httpserver.log&#x27;, &#x27;profiler_dir&#x27;: None, &#x27;args&#x27;: [&#x27;&#x27;], &#x27;socket_timeout&#x27;: 5, &#x27;ssl_ca_certificate&#x27;: None, &#x27;scheduler&#x27;: None, &#x27;interfaces&#x27;: None, &#x27;ssl_private_key&#x27;: &#x27;&#x27;, &#x27;scheduler_groups&#x27;: None, &#x27;password&#x27;: &#x27;&lt;ask&gt;&#x27;, &#x27;request_queue_size&#x27;: 5, &#x27;ssl_certificate&#x27;: &#x27;&#x27;, &#x27;cronjob&#x27;: False, &#x27;numthreads&#x27;: None, &#x27;quiet&#x27;: False, &#x27;import_models&#x27;: False, &#x27;timeout&#x27;: 10, &#x27;plain&#x27;: False, &#x27;nobanner&#x27;: False}&gt;</div></td></tr><tr><td style="font-weight:bold;vertical-align:top;">db_sessions</td><td style="vertical-align:top;">:</td><td><div>set([])</div></td></tr><tr><td style="font-weight:bold;vertical-align:top;">debugging</td><td style="vertical-align:top;">:</td><td><div>True</div></td></tr><tr><td style="font-weight:bold;vertical-align:top;">gluon_parent</td><td style="vertical-align:top;">:</td><td><div>/Applications/web2py.app/Contents/Resources</div></td></tr><tr><td style="font-weight:bold;vertical-align:top;">is_jython</td><td style="vertical-align:top;">:</td><td><div>False</div></td></tr><tr><td style="font-weight:bold;vertical-align:top;">is_pypy</td><td style="vertical-align:top;">:</td><td><div>False</div></td></tr><tr><td style="font-weight:bold;vertical-align:top;">is_source</td><td style="vertical-align:top;">:</td><td><div>True</div></td></tr><tr><td style="font-weight:bold;vertical-align:top;">local_hosts</td><td style="vertical-align:top;">:</td><td><div><table><tr><td><div>192.168.100.4</div></td></tr><tr><td><div>::ffff:127.0.0.1</div></td></tr><tr><td><div>::1</div></td></tr><tr><td><div>fe80::60c:ceff:fee3:df4a%en0</div></td></tr><tr><td><div>maclogair.local</div></td></tr><tr><td><div>127.0.0.1</div></td></tr></table></div></td></tr><tr><td style="font-weight:bold;vertical-align:top;">web2py_version</td><td style="vertical-align:top;">:</td><td><div>2.8.2-stable+timestamp.2013.11.28.13.54.07</div></td></tr></table></div></td></tr><tr><td style="font-weight:bold;vertical-align:top;">is_https</td><td style="vertical-align:top;">:</td><td><div>False</div></td></tr><tr><td style="font-weight:bold;vertical-align:top;">is_local</td><td style="vertical-align:top;">:</td><td><div>True</div></td></tr><tr><td style="font-weight:bold;vertical-align:top;">is_restful</td><td style="vertical-align:top;">:</td><td><div>False</div></td></tr><tr><td style="font-weight:bold;vertical-align:top;">now</td><td style="vertical-align:top;">:</td><td><div>datetime.datetime(2014, 5, 6, 17, 25, 59, 409292)</div></td></tr><tr><td style="font-weight:bold;vertical-align:top;">raw_args</td><td style="vertical-align:top;">:</td><td><div></div></td></tr><tr><td style="font-weight:bold;vertical-align:top;">raw_extension</td><td style="vertical-align:top;">:</td><td><div>json</div></td></tr><tr><td style="font-weight:bold;vertical-align:top;">url</td><td style="vertical-align:top;">:</td><td><div>/fbmayor/graphAPI/test.json</div></td></tr><tr><td style="font-weight:bold;vertical-align:top;">utcnow</td><td style="vertical-align:top;">:</td><td><div>datetime.datetime(2014, 5, 6, 9, 25, 59, 409307)</div></td></tr><tr><td style="font-weight:bold;vertical-align:top;">uuid</td><td style="vertical-align:top;">:</td><td><div>fbmayor/127.0.0.1.2014-05-06.17-25-59.938c6cd4-29d9-4ba7-a597-5b6ddf487e8c</div></td></tr><tr><td style="font-weight:bold;vertical-align:top;">wsgi</td><td style="vertical-align:top;">:</td><td><div>&lt;gluon.main.LazyWSGI object at 0x1106f6390&gt;</div></td></tr></table></div>'
tRp70
sS'frames'
p71
(lp72
(dp73
S'file'
p74
S'/Applications/web2py.app/Contents/Resources/gluon/restricted.py'
p75
sS'dump'
p76
(dp77
S'environment'
p78
S"{'A': <class 'gluon.html.A'>, 'ANY_OF': <class 'gluon.validators.ANY_OF'>, 'Auth': <class 'gluon.tools.Auth'>, 'B': <class 'gluon.html.B'>, 'BEAUTIFY': <class 'gluon.html.BEAUTIFY'>, 'BODY': <class 'gluon.html.BODY'>, 'BR': <class 'gluon.html.BR'>, 'BUTTON': <class 'gluon.html.BUTTON'>, 'CAT': <class 'gluon.html.CAT'>, 'CENTER': <class 'gluon.html.CENTER'>, ...}"
p79
sS'ccode'
p80
S'<code object <module> at 0x10d72f230, file "/App...applications/fbmayor/models/fb_place.py", line 3>'
p81
ssS'lnum'
p82
I217
sS'lines'
p83
(dp84
I212
S'    try:'
p85
sI213
S'        if isinstance(code, types.CodeType):'
p86
sI214
S'            ccode = code'
p87
sI215
S'        else:'
p88
sI216
S'            ccode = compile2(code, layer)'
p89
sI217
S'        exec ccode in environment'
p90
sI218
S'    except HTTP:'
p91
sI219
S'        raise'
p92
sI220
S'    except RestrictedError:'
p93
sI221
S'        # do not encapsulate (obfuscate) the original RestrictedError'
p94
ssS'call'
p95
S'(code=\'# coding: utf8\\n#fbpl = DAL("sqlite://storage.sql...oreply_count\\\',\\\'integer\\\'), Field(\\\'updated_time\\\'))\\n\', environment={\'A\': <class \'gluon.html.A\'>, \'ANY_OF\': <class \'gluon.validators.ANY_OF\'>, \'Auth\': <class \'gluon.tools.Auth\'>, \'B\': <class \'gluon.html.B\'>, \'BEAUTIFY\': <class \'gluon.html.BEAUTIFY\'>, \'BODY\': <class \'gluon.html.BODY\'>, \'BR\': <class \'gluon.html.BR\'>, \'BUTTON\': <class \'gluon.html.BUTTON\'>, \'CAT\': <class \'gluon.html.CAT\'>, \'CENTER\': <class \'gluon.html.CENTER\'>, ...}, layer=\'/Applications/web2py.app/Contents/Resources/applications/fbmayor/models/fb_place.py\')'
p96
sS'func'
p97
S'restricted'
p98
sa(dp99
g74
S'/Applications/web2py.app/Contents/Resources/applications/fbmayor/models/fb_place.py'
p100
sg76
(dp101
S'fbpl'
p102
S'<DAL uri="mongodb://localhost/fbmayor">'
p103
sS'fbpl.executesql'
p104
S'<bound method DAL.executesql of <DAL uri="mongodb://localhost/fbmayor">>'
p105
ssg82
I10
sg83
(dp106
I5
S''
sI6
S''
sI7
S"fbpl.define_table('post', Field('fid',unique=True), Field('message'), Field('from_id'), Field('from_name'), Field('created_time', 'datetime'),Field('object_id'), Field('ptype'), Field('status_type'), Field('link'), Field('picture'),  Field('updated_time','datetime'), Field('shares_count','integer',default=0), Field('likes_count','integer',default=0), Field('comment_count','integer', default=0), Field('shares_count48','integer',default=0), Field('likes_count48','integer',default=0), Field('comment_count48','integer', default=0), Field('likes_sincelastupdate','integer',default=0),  Field('shares_sincelastupdate','integer',default=0), Field('comment_sincelastupdate','integer',default=0), Field('team'), Field('placeid'), Field('placename'),Field('fscore','double',default=0),Field('tscore','double',default=0))"
p107
sI8
S''
sI9
S"fbpl.define_table('post_counts', Field('fid'), Field('date_time', 'datetime'), Field('shares_count','integer'), Field('updated_time', 'datetime'), Field('likes_count','integer'), Field('comment_count','integer'))"
p108
sI10
S"fbpl.executesql('CREATE INDEX myidx ON post_counts (date_time);')"
p109
sI11
S''
sI12
S"fbpl.define_table('page',Field('about'),Field('can_post'),Field('category'),Field('is_published'),Field('pageid',unique=True),Field('name'),Field('link'),Field('description'),Field('updated_time'),Field('cover_id'),Field('cover_source'),Field('source'),Field('locale'),Field('website'),Field('checkins','integer',default=0),Field('likes','integer',default=0),Field('were_here_count','integer',default=0),Field('talking_about_count','integer',default=0) ,Field('checkins24','integer',default=0),Field('likes24','integer',default=0),Field('were_here_count24','integer',default=0),Field('talking_about_count24','integer',default=0) ,Field('likes_sincelastupdate','integer',default=0),  Field('checkins_sincelastupdate','integer',default=0),  Field('were_here_sincelastupdate','integer',default=0), Field('talking_about_sincelastupdate','integer',default=0),  Field('picture'), Field('team') )"
p110
sI13
S''
sI14
S'fbpl.page.pageid.requires=IS_NOT_EMPTY()'
p111
ssg95
S'()'
p112
sg97
S'<module>'
p113
sa(dp114
g74
S'/Applications/web2py.app/Contents/Resources/gluon/dal.py'
p115
sg76
(dp116
S'query'
p117
S"'CREATE INDEX myidx ON post_counts (date_time);'"
p118
sS'adapter'
p119
S'<gluon.dal.MongoDBAdapter object>'
p120
sS'adapter.execute'
p121
S'<bound method MongoDBAdapter.execute of <gluon.dal.MongoDBAdapter object>>'
p122
ssg82
I8349
sg83
(dp123
I8352
S'                raise RuntimeError("database does not support executesql(...,as_dict=True)")'
p124
sI8353
S'            # Non-DAL legacy db query, converts cursor results to dict.'
p125
sI8344
S'        """'
p126
sI8345
S'        adapter = self._adapter'
p127
sI8346
S'        if placeholders:'
p128
sI8347
S'            adapter.execute(query, placeholders)'
p129
sI8348
S'        else:'
p130
sI8349
S'            adapter.execute(query)'
p131
sI8350
S'        if as_dict or as_ordered_dict:'
p132
sI8351
S"            if not hasattr(adapter.cursor,'description'):"
p133
ssg95
S'(self=<DAL uri="mongodb://localhost/fbmayor">, query=\'CREATE INDEX myidx ON post_counts (date_time);\', placeholders=None, as_dict=False, fields=None, colnames=None, as_ordered_dict=False)'
p134
sg97
S'executesql'
p135
sa(dp136
g74
S'/Applications/web2py.app/Contents/Resources/gluon/dal.py'
p137
sg76
(dp138
S'a'
S"('CREATE INDEX myidx ON post_counts (date_time);',)"
p139
sS'execute'
p140
S'undefined'
p141
sS'b'
g21
sS'builtinSyntaxError'
p142
S"<type 'exceptions.SyntaxError'>"
p143
sS'self'
p144
S'<gluon.dal.MongoDBAdapter object>'
p145
ssg82
I4709
sg83
(dp146
I4704
S'    def rollback_prepared(self,key): raise SyntaxError("Not supported")'
p147
sI4705
S'    def concat_add(self,table): raise SyntaxError("Not supported")'
p148
sI4706
S'    def constraint_name(self, table, fieldname): raise SyntaxError("Not supported")'
p149
sI4707
S'    def create_sequence_and_triggers(self, query, table, **args): pass'
p150
sI4708
S'    def log_execute(self,*a,**b): raise SyntaxError("Not supported")'
p151
sI4709
S'    def execute(self,*a,**b): raise SyntaxError("Not supported")'
p152
sI4710
S'    def represent_exceptions(self, obj, fieldtype): raise SyntaxError("Not supported")'
p153
sI4711
S'    def lastrowid(self,table): raise SyntaxError("Not supported")'
p154
sI4712
S'    def rowslice(self,rows,minimum=0,maximum=None): raise SyntaxError("Not supported")'
p155
sI4713
S''
ssg95
S"(self=<gluon.dal.MongoDBAdapter object>, *a=('CREATE INDEX myidx ON post_counts (date_time);',), **b={})"
p156
sg97
S'execute'
p157
sasS'pyver'
p158
S'Python 2.7.5: /Library/Frameworks/Python.framework/Versions/2.7/Resources/Python.app/Contents/MacOS/Python (prefix: /Library/Frameworks/Python.framework/Versions/2.7)'
p159
sS'session'
p160
g69
(S's\x94\x0c\x00\x00<div><table><tr><td style="font-weight:bold;vertical-align:top;">auth</td><td style="vertical-align:top;">:</td><td><div><table><tr><td style="font-weight:bold;vertical-align:top;">expiration</td><td style="vertical-align:top;">:</td><td><div>3600</div></td></tr><tr><td style="font-weight:bold;vertical-align:top;">hmac_key</td><td style="vertical-align:top;">:</td><td><div>639d1ffc-a84d-40bc-98d8-ce211dc1eed9</div></td></tr><tr><td style="font-weight:bold;vertical-align:top;">last_visit</td><td style="vertical-align:top;">:</td><td><div>datetime.datetime(2014, 5, 6, 17, 25, 59, 409292)</div></td></tr><tr><td style="font-weight:bold;vertical-align:top;">remember</td><td style="vertical-align:top;">:</td><td><div>False</div></td></tr><tr><td style="font-weight:bold;vertical-align:top;">user</td><td style="vertical-align:top;">:</td><td><div><table><tr><td style="font-weight:bold;vertical-align:top;">first_name</td><td style="vertical-align:top;">:</td><td><div>Chih-Yuan</div></td></tr><tr><td style="font-weight:bold;vertical-align:top;">id</td><td style="vertical-align:top;">:</td><td><div>1L</div></td></tr><tr><td style="font-weight:bold;vertical-align:top;">last_name</td><td style="vertical-align:top;">:</td><td><div>Chen</div></td></tr><tr><td style="font-weight:bold;vertical-align:top;">registration_id</td><td style="vertical-align:top;">:</td><td><div>614901526</div></td></tr><tr><td style="font-weight:bold;vertical-align:top;">registration_key</td><td style="vertical-align:top;">:</td><td><div></div></td></tr><tr><td style="font-weight:bold;vertical-align:top;">username</td><td style="vertical-align:top;">:</td><td><div>614901526</div></td></tr></table></div></td></tr><tr><td style="font-weight:bold;vertical-align:top;">user_groups</td><td style="vertical-align:top;">:</td><td><div><table><tr><td style="font-weight:bold;vertical-align:top;">1</td><td style="vertical-align:top;">:</td><td><div>user_1</div></td></tr></table></div></td></tr></table></div></td></tr><tr><td style="font-weight:bold;vertical-align:top;">flash</td><td style="vertical-align:top;">:</td><td><div>None</div></td></tr><tr><td style="font-weight:bold;vertical-align:top;">last_orderby</td><td style="vertical-align:top;">:</td><td><div>None</div></td></tr><tr><td style="font-weight:bold;vertical-align:top;">last_query</td><td style="vertical-align:top;">:</td><td><div>fbpl.dailySum.id&gt;0</div></td></tr><tr><td style="font-weight:bold;vertical-align:top;">redirect_uri</td><td style="vertical-align:top;">:</td><td><div>http://127.0.0.1:8088/fbmayor/default/user/login</div></td></tr><tr><td style="font-weight:bold;vertical-align:top;">token</td><td style="vertical-align:top;">:</td><td><div><table><tr><td style="font-weight:bold;vertical-align:top;">access_token</td><td style="vertical-align:top;">:</td><td><div>CAADSl0gHeTUBAEuFvC6ZAGOZBoIoO0LuJ2UflY5I73R4EzaZAaZAoPFZBqZB2WAdEe2YzfJn2VRWogX3Eq3OXh5RLvbcDZAnC3HFkxlE0c7DFBOULWcAYSSdY09jXZCl7GZAfSYF89HbiCu9w1PZBgfptmLj9rpOOe2CFBUd9HmvSezf4rpsi3U3YI</div></td></tr><tr><td style="font-weight:bold;vertical-align:top;">expires</td><td style="vertical-align:top;">:</td><td><div>1404544508.806448</div></td></tr></table></div></td></tr></table></div>'
tRp161
sS'etype'
p162
S"<type 'exceptions.SyntaxError'>"
p163
sS'date'
p164
S'Tue May  6 17:25:59 2014'
p165
sS'response'
p166
g69
(S's\xd8\x16\x00\x00<div><table><tr><td style="font-weight:bold;vertical-align:top;">body</td><td style="vertical-align:top;">:</td><td><div>&lt;cStringIO.StringO object at 0x111a71618&gt;</div></td></tr><tr><td style="font-weight:bold;vertical-align:top;">cookies</td><td style="vertical-align:top;">:</td><td><div><table><tr><td style="font-weight:bold;vertical-align:top;">session_id_fbmayor</td><td style="vertical-align:top;">:</td><td><div>127.0.0.1-51a554af-52fd-4e45-9f59-38dfe11ae747<table><tr><td style="font-weight:bold;vertical-align:top;">comment</td><td style="vertical-align:top;">:</td><td><div></div></td></tr><tr><td style="font-weight:bold;vertical-align:top;">domain</td><td style="vertical-align:top;">:</td><td><div></div></td></tr><tr><td style="font-weight:bold;vertical-align:top;">expires</td><td style="vertical-align:top;">:</td><td><div></div></td></tr><tr><td style="font-weight:bold;vertical-align:top;">httponly</td><td style="vertical-align:top;">:</td><td><div></div></td></tr><tr><td style="font-weight:bold;vertical-align:top;">max-age</td><td style="vertical-align:top;">:</td><td><div></div></td></tr><tr><td style="font-weight:bold;vertical-align:top;">path</td><td style="vertical-align:top;">:</td><td><div>/</div></td></tr><tr><td style="font-weight:bold;vertical-align:top;">secure</td><td style="vertical-align:top;">:</td><td><div></div></td></tr><tr><td style="font-weight:bold;vertical-align:top;">version</td><td style="vertical-align:top;">:</td><td><div></div></td></tr></table></div></td></tr></table></div></td></tr><tr><td style="font-weight:bold;vertical-align:top;">delimiters</td><td style="vertical-align:top;">:</td><td><div><table><tr><td><div>{{</div></td></tr><tr><td><div>}}</div></td></tr></table></div></td></tr><tr><td style="font-weight:bold;vertical-align:top;">files</td><td style="vertical-align:top;">:</td><td><div><table></table></div></td></tr><tr><td style="font-weight:bold;vertical-align:top;">flash</td><td style="vertical-align:top;">:</td><td><div></div></td></tr><tr><td style="font-weight:bold;vertical-align:top;">generic_patterns</td><td style="vertical-align:top;">:</td><td><div><table></table></div></td></tr><tr><td style="font-weight:bold;vertical-align:top;">headers</td><td style="vertical-align:top;">:</td><td><div><table><tr><td style="font-weight:bold;vertical-align:top;">X-Powered-By</td><td style="vertical-align:top;">:</td><td><div>web2py</div></td></tr></table></div></td></tr><tr><td style="font-weight:bold;vertical-align:top;">menu</td><td style="vertical-align:top;">:</td><td><div><table></table></div></td></tr><tr><td style="font-weight:bold;vertical-align:top;">meta</td><td style="vertical-align:top;">:</td><td><div><table></table></div></td></tr><tr><td style="font-weight:bold;vertical-align:top;">models_to_run</td><td style="vertical-align:top;">:</td><td><div><table><tr><td><div>^\\w+\\.py$</div></td></tr><tr><td><div>^graphAPI/\\w+\\.py$</div></td></tr><tr><td><div>^graphAPI/test/\\w+\\.py$</div></td></tr></table></div></td></tr><tr><td style="font-weight:bold;vertical-align:top;">postprocessing</td><td style="vertical-align:top;">:</td><td><div><table></table></div></td></tr><tr><td style="font-weight:bold;vertical-align:top;">session_client</td><td style="vertical-align:top;">:</td><td><div>127.0.0.1</div></td></tr><tr><td style="font-weight:bold;vertical-align:top;">session_cookie_compression_level</td><td style="vertical-align:top;">:</td><td><div>None</div></td></tr><tr><td style="font-weight:bold;vertical-align:top;">session_cookie_expires</td><td style="vertical-align:top;">:</td><td><div>None</div></td></tr><tr><td style="font-weight:bold;vertical-align:top;">session_cookie_key</td><td style="vertical-align:top;">:</td><td><div>None</div></td></tr><tr><td style="font-weight:bold;vertical-align:top;">session_data_name</td><td style="vertical-align:top;">:</td><td><div>session_data_fbmayor</div></td></tr><tr><td style="font-weight:bold;vertical-align:top;">session_file</td><td style="vertical-align:top;">:</td><td><div>&lt;open file &#x27;/Applications/web2py.app/Contents/Resources/applications/fbmayor/sessions/127.0.0.1-51a554af-52fd-4e45-9f59-38dfe11ae747&#x27;, mode &#x27;rb+&#x27; at 0x10db48d20&gt;</div></td></tr><tr><td style="font-weight:bold;vertical-align:top;">session_filename</td><td style="vertical-align:top;">:</td><td><div>/Applications/web2py.app/Contents/Resources/applications/fbmayor/sessions/127.0.0.1-51a554af-52fd-4e45-9f59-38dfe11ae747</div></td></tr><tr><td style="font-weight:bold;vertical-align:top;">session_hash</td><td style="vertical-align:top;">:</td><td><div>2d87968fcfbc0e16f15239a021083dab</div></td></tr><tr><td style="font-weight:bold;vertical-align:top;">session_id</td><td style="vertical-align:top;">:</td><td><div>127.0.0.1-51a554af-52fd-4e45-9f59-38dfe11ae747</div></td></tr><tr><td style="font-weight:bold;vertical-align:top;">session_id_name</td><td style="vertical-align:top;">:</td><td><div>session_id_fbmayor</div></td></tr><tr><td style="font-weight:bold;vertical-align:top;">session_locked</td><td style="vertical-align:top;">:</td><td><div>True</div></td></tr><tr><td style="font-weight:bold;vertical-align:top;">session_masterapp</td><td style="vertical-align:top;">:</td><td><div>fbmayor</div></td></tr><tr><td style="font-weight:bold;vertical-align:top;">session_new</td><td style="vertical-align:top;">:</td><td><div>False</div></td></tr><tr><td style="font-weight:bold;vertical-align:top;">session_storage_type</td><td style="vertical-align:top;">:</td><td><div>file</div></td></tr><tr><td style="font-weight:bold;vertical-align:top;">status</td><td style="vertical-align:top;">:</td><td><div>200</div></td></tr><tr><td style="font-weight:bold;vertical-align:top;">view</td><td style="vertical-align:top;">:</td><td><div>graphAPI/test.json</div></td></tr></table></div>'
tRp167
sS'locals'
p168
(dp169
S'a'
S"('CREATE INDEX myidx ON post_counts (date_time);',)"
p170
sS'self'
p171
S'<gluon.dal.MongoDBAdapter object>'
p172
sS'b'
g21
sssS'traceback'
p173
S'Traceback (most recent call last):\n  File "/Applications/web2py.app/Contents/Resources/gluon/restricted.py", line 217, in restricted\n    exec ccode in environment\n  File "/Applications/web2py.app/Contents/Resources/applications/fbmayor/models/fb_place.py", line 10, in <module>\n    fbpl.executesql(\'CREATE INDEX myidx ON post_counts (date_time);\')\n  File "/Applications/web2py.app/Contents/Resources/gluon/dal.py", line 8349, in executesql\n    adapter.execute(query)\n  File "/Applications/web2py.app/Contents/Resources/gluon/dal.py", line 4709, in execute\n    def execute(self,*a,**b): raise SyntaxError("Not supported")\nSyntaxError: Not supported\n'
p174
s.