(dp1
S'output'
p2
S"<type 'exceptions.TypeError'> unsupported operand type(s) for -: 'NoneType' and 'long'"
p3
sS'layer'
p4
S'/Applications/web2py.app/Contents/Resources/applications/fbmayor/controllers/ws.py'
p5
sS'code'
p6
S'# coding:utf8\nimport ExtendedOpenGraph\nimport json\nfrom collections import OrderedDict\nimport datetime\nfrom dateutil import parser, tz\nimport calendar\n\n\n\n\n\n\n\ndef index(): return dict(message="hello from ws.py")\n\n\ndef timeseries():\n    candidates = ["\xe9\x80\xa3\xe5\x8b\x9d\xe6\x96\x87","\xe6\x9f\xaf\xe6\x96\x87\xe5\x93\xb2"]\n    timeseries={}\n    result=OrderedDict()\n    date1=[]\n\n    rows = fbpl(fbpl.team_counts.team == "\xe9\x80\xa3\xe5\x8b\x9d\xe6\x96\x87").select(fbpl.team_counts.ALL, orderby=fbpl.team_counts.date_time)\n    for row in rows:\n        listdate = row.date_time\n        date1.append(listdate.strftime(\'%Y/%m/%d\'))\n    result.update({"date":date1})\n    result.update({"candidates":candidates})\n    r1=[]\n    r2=[]\n    r3=[]\n    r4=[]\n    r5=[]\n    r6=[]\n    for row in rows:\n        likes = []\n        talkingAbout=[]\n        totalPosts=[]\n        totalPostLikes=[]\n        totalPostComments=[]\n        totalPostShares=[]\n\n        date = row.date_time\n        date1 = date - datetime.timedelta(days=1)\n        date2 = date + datetime.timedelta(days=1)\n        date3 = date - datetime.timedelta(hours=8)\n        date4 = date2 - datetime.timedelta(hours=8)\n        \n        \n\n        \n        \n        row1 = fbpl((fbpl.team_counts.team == "\xe9\x80\xa3\xe5\x8b\x9d\xe6\x96\x87") & (fbpl.team_counts.date_time>=date1)).select(fbpl.team_counts.ALL).first()\n        \n        talkingAbout.append(row.talking_about_count)\n        \n        Posts = fbpl((fbpl.post.team == "\xe9\x80\xa3\xe5\x8b\x9d\xe6\x96\x87") & (fbpl.post.created_time >= date3) & (fbpl.post.created_time < date4) ).select()\n        posts_today=len(Posts)\n        totalPosts.append(posts_today)\n        \n        if row1:\n            likes.append(row.likes-row1.likes)\n            totalPostLikes.append(row.total_post_likes-row1.total_post_likes)\n            totalPostComments.append(row.total_post_comments-row1.total_post_comments)\n            totalPostShares.append(row.total_post_shares-row1.total_post_shares)\n        else:\n            likes.append(0)\n            totalPostLikes.append(0)\n            totalPostComments.append(0)\n            totalPostShares.append(0)\n\n        row2 = fbpl((fbpl.team_counts.team == "\xe6\x9f\xaf\xe6\x96\x87\xe5\x93\xb2") & (fbpl.team_counts.date_time>=date) ).select(fbpl.team_counts.ALL).first()\n\n        row3 = fbpl((fbpl.team_counts.team == "\xe6\x9f\xaf\xe6\x96\x87\xe5\x93\xb2") & (fbpl.team_counts.date_time>=date1) ).select(fbpl.team_counts.ALL).first()\n        \n        talkingAbout.append(row2.talking_about_count)\n        Posts = fbpl((fbpl.post.team == "\xe6\x9f\xaf\xe6\x96\x87\xe5\x93\xb2") &  (fbpl.post.created_time >= date3) & (fbpl.post.created_time < date4) ).select()\n        posts_today=len(Posts)\n        totalPosts.append(posts_today)\n        \n        if row3:\n            likes.append(row2.likes-row3.likes)\n            totalPostLikes.append(row2.total_post_likes-row3.total_post_likes)\n            totalPostComments.append(row2.total_post_comments-row3.total_post_comments)\n            totalPostShares.append(row2.total_post_shares-row3.total_post_shares)\n\n        else:\n            likes.append(0)\n            totalPostLikes.append(0)\n            totalPostComments.append(0)\n            totalPostShares.append(0)\n        r1.append(likes)\n        r2.append(talkingAbout)\n        r3.append(totalPosts)\n        r4.append(totalPostLikes)\n        r5.append(totalPostComments)\n        r6.append(totalPostShares)\n\n    result.update({"likes":r1})\n    result.update({"talkingAbout":r2})\n    result.update({"totalPosts":r3})\n    result.update({"totalPostLikes":r4})\n    result.update({"totalPostComments":r5})\n    result.update({"totalPostShares":r6})\n\n\n\n\n    file=open(\'/Users/logyuan/Documents/git/ElectionPath/db/taipeimayor_timeseries.JSON\',\'w\')\n    #file=open(\'Z:\\\\pathgeo\\\\github\\\\ElectionPath\\\\db\\\\taipeimayor_timeseries.JSON\',\'w\')\n    file.write(json.dumps(result, indent=4 , ensure_ascii=False, separators=(\',\', \': \')))\n\n\n\n    return json.dumps(result, indent=4 , ensure_ascii=False, separators=(\',\', \':\'))\n\n\ndef utc_time(strtime):\n    #from_zone = tz.tzutc()\n    #to_zone = tz.gettz("CST")\n    #utctimestamp = calendar.timegm(parser.parse(strtime).timetuple())\n    utctime = datetime.datetime.strptime( strtime, \'%Y-%m-%d %H:%M:%S\')  #2014-04-19T20:30:00-0700\n    #utctime = utctime.replace(tzinfo=from_zone)\n    # Convert time zone\n    central = (utctime + datetime.timedelta(hours=8)).strftime(\'%Y-%m-%dT%H:%M:%S\')\n    #central = utctime.astimezone(to_zone).strftime(\'%Y-%m-%dT%H:%M:%S\')\n    return central\n\n\n\n\n\ndef getOpengraphImage(url):\n    op={}\n    image=\'\'\n    if (url and url<>""):\n        try:\n            op = ExtendedOpenGraph.parse(url)\n            image = op[\'image\']\n        except:\n            image=\'\'\n    return image\n\n\ndef exportElectionPath():\n\n    colors={"\xe9\x80\xa3\xe5\x8b\x9d\xe6\x96\x87":\'#018CD5\',"\xe6\x9f\xaf\xe6\x96\x87\xe5\x93\xb2":\'#1ACD02\',"\xe9\xa1\xa7\xe7\xab\x8b\xe9\x9b\x84":\'#1ACDCD\'}\n\n\n    candidates = []\n    candidates.append("\xe9\x80\xa3\xe5\x8b\x9d\xe6\x96\x87")\n    candidates.append("\xe6\x9f\xaf\xe6\x96\x87\xe5\x93\xb2")\n    candidates.append("\xe9\xa1\xa7\xe7\xab\x8b\xe9\x9b\x84")\n    results=OrderedDict()\n\n    for candidate in candidates:\n\n        result=OrderedDict()\n        likes=0\n        talking_about_count=0\n        likes_sincelastupdate=0\n        talking_about_sincelastupdate=0\n\n        picture=\'\'\n        url_facebook=\'\'\n        \n\n        \n        Pages = fbpl(fbpl.page.team == candidate).select(orderby=fbpl.page.likes)\n        for page in Pages:\n            ts=OrderedDict()\n            likes += page.likes\n            talking_about_count+= page.talking_about_count\n            likes_sincelastupdate += page.likes24\n            talking_about_sincelastupdate += page.talking_about_count24\n\n        FPage = fbpl(fbpl.page.team == candidate).select(orderby=fbpl.page.likes).last()\n\n        ts=OrderedDict()\n        ts.update({"name": candidate})\n        ts.update({"backgroundColor": colors[candidate]})\n        ts.update({"image": FPage.picture})\n        updateTime = str(FPage.updated_time)\n        ts.update({"updatedTime": utc_time(updateTime)})\n        ts.update({"likes": likes})\n        #ts.update({"were_here_count": were_here_count})\n        ts.update({"talking_about_count": talking_about_count})\n        ts.update({"likes_sincelastupdate": likes_sincelastupdate})\n        #ts.update({"were_here_sincelastupdate": were_here_sincelastupdate})\n        ts.update({"talking_about_sincelastupdate": talking_about_sincelastupdate})\n        result.update(ts)\n        \n        \n        \n        \n        ts=OrderedDict()\n        ts.update({"name": FPage.name})\n        ts.update({"url": FPage.link})\n        since = \'2014-03-19\' if candidate == \'\xe9\x80\xa3\xe5\x8b\x9d\xe6\x96\x87\' else \'2011-10-20\'\n        ts.update({"since": since})\n        ts.update({"likes": FPage.likes})\n        ts.update({"talking_about_count": FPage.talking_about_count})\n        ts.update({"likes_sincelastupdate":FPage.likes24})\n        ts.update({"talking_about_sincelastupdate": FPage.talking_about_count24})\n        \n        result.update({\'officialPage\':ts})\n        \n        fanPages=[]\n        for page in Pages.exclude(lambda page: page.pageid<>FPage.pageid):\n            ts=OrderedDict()\n            ts.update({"name": page.name})\n            ts.update({"url": page.link})\n            ts.update({"since": \'2014\'})\n            ts.update({"likes": page.likes})\n            ts.update({"talking_about_count": page.talking_about_count})\n            ts.update({"likes_sincelastupdate":page.likes24})\n            ts.update({"talking_about_sincelastupdate": page.talking_about_count24})\n            fanPages.append(ts)\n            \n        result.update({\'fanPages\':fanPages})\n\n\n\n#--------------------------------------------------------------------------------------------------------------#\n\n        team_counts = fbpl(fbpl.team_counts.team == candidate).select(orderby=~fbpl.team_counts.date_time).first()\n        total_active_posts=team_counts.total_active_posts\n        total_post_likes=team_counts.total_post_likes\n        total_post_comments=team_counts.total_post_comments\n        total_post_shares=team_counts.total_post_shares\n\n        hour48_active_posts=team_counts.hour48_active_posts\n        hour48_post_likes=team_counts.hour48_post_likes\n        hour48_post_comments=team_counts.hour48_post_comments\n        hour48_post_shares=team_counts.hour48_post_shares\n\n        hour48_active_stories=team_counts.hour48_active_stories\n        hour48_story_likes=team_counts.hour48_story_likes\n        hour48_story_comments=team_counts.hour48_story_comments\n        hour48_story_shares=team_counts.hour48_story_shares\n\n        hour48_active_links=team_counts.hour48_active_links\n        hour48_link_likes=team_counts.hour48_link_likes\n        hour48_link_comments=team_counts.hour48_link_comments\n        hour48_link_shares=team_counts.hour48_link_shares\n\n        hour48_active_videos=team_counts.hour48_active_videos\n        hour48_video_likes=team_counts.hour48_video_likes\n        hour48_video_comments=team_counts.hour48_video_comments\n        hour48_video_shares=team_counts.hour48_video_shares\n\n#--------------------------------------------------------------------------------------------------------------#\n        ts=OrderedDict()\n        ts.update({"total_active_posts": total_active_posts})\n        ts.update({"total_post_likes": total_post_likes})\n        ts.update({"total_post_comments": total_post_comments})\n        ts.update({"total_post_shares": total_post_shares})\n\n        result.update({\'TopPost_count\':ts})\n#--------------------------------------------------------------------------------------------------------------#\n        TopPost=[]\n        Posts = fbpl((fbpl.post.team == candidate)).select( orderby =~fbpl.post.tscore  ,limitby=(0,3))\n        i=1\n\n        for Post in Posts:\n            ts=OrderedDict()\n            ts.update({"rank": i})\n            ts.update({"score": Post[\'tscore\']})\n            ts.update({"tscore": Post[\'tscore\']})\n            ts.update({"fscore": Post[\'fscore\']})\n            ts.update({"message": Post[\'message\']})\n            ts.update({"from_id": Post[\'from_id\']})\n            from_picture=fbpl(fbpl.page.pageid==Post[\'from_id\']).select(fbpl.page.picture).first()["picture"]\n            ts.update({"from_picture": from_picture})\n            ts.update({"from_name": Post[\'from_name\']})\n            created_time = str(Post[\'created_time\'])\n            ts.update({"created_time": utc_time(created_time)})\n            updated_time = str(Post[\'updated_time\'])\n            ts.update({"updated_time": utc_time(updated_time)})\n            ts.update({"shares_count": Post[\'shares_count\']})\n            ts.update({"comment_count": Post[\'comment_count\']})\n            ts.update({"likes_count": Post[\'likes_count\']})\n            ts.update({"shares_sincelastupdate": Post[\'shares_count48\']})\n            ts.update({"comment_sincelastupdate": Post[\'comment_count48\']})\n            ts.update({"likes_sincelastupdate": Post[\'likes_count48\']})\n            ts.update({"link": Post[\'link\']})\n            ts.update({"picture": Post[\'picture\']})\n            #picture = getOpengraphImage(story[\'link\'])\n            #ts.update({"picture": picture})\n\n            i=i+1\n            TopPost.append(ts)\n\n        result.update({\'TopPost\':TopPost})\n#--------------------------------------------------------------------------------------------------------------#\n        ts=OrderedDict()\n        ts.update({"hour48_active_stories": hour48_active_stories})\n        ts.update({"hour48_post_likes": hour48_post_likes})\n        ts.update({"hour48_post_comments": hour48_post_comments})\n        ts.update({"hour48_post_shares": hour48_post_shares})\n\n        result.update({\'HotStory_count\':ts})\n#--------------------------------------------------------------------------------------------------------------#\n\n        HotStory=[]\n        Stories = fbpl( ((fbpl.post.ptype == \'status\') | (fbpl.post.ptype == \'photo\' )) & (fbpl.post.team == candidate) & (fbpl.post.fscore > 0.0 )).select( orderby =~fbpl.post.fscore , groupby = fbpl.post.object_id ,limitby=(0,10))\n        i=1\n\n        for story in Stories:\n            ts=OrderedDict()\n            ts.update({"rank": i})\n            ts.update({"score": story[\'fscore\']})\n            ts.update({"tscore": story[\'tscore\']})\n            ts.update({"fscore": story[\'fscore\']})\n            ts.update({"message": story[\'message\']})\n            ts.update({"from_id": story[\'from_id\']})\n            from_picture=fbpl(fbpl.page.pageid==story[\'from_id\']).select(fbpl.page.picture).first()["picture"]\n            ts.update({"from_picture": from_picture})\n            ts.update({"from_name": story[\'from_name\']})\n            created_time = str(story[\'created_time\'])\n            ts.update({"created_time": utc_time(created_time)})\n            updated_time = str(story[\'updated_time\'])\n            ts.update({"updated_time": utc_time(updated_time)})\n            ts.update({"shares_count": story[\'shares_count\']})\n            ts.update({"comment_count": story[\'comment_count\']})\n            ts.update({"likes_count": story[\'likes_count\']})\n            ts.update({"shares_sincelastupdate": story[\'shares_count48\']})\n            ts.update({"comment_sincelastupdate": story[\'comment_count48\']})\n            ts.update({"likes_sincelastupdate": story[\'likes_count48\']})\n            ts.update({"link": story[\'link\']})\n            ts.update({"picture": story[\'picture\']})\n            i=i+1\n            HotStory.append(ts)\n\n        result.update({\'HotStory\':HotStory})\n\n#--------------------------------------------------------------------------------------------------------------#\n        ts=OrderedDict()\n        ts.update({"hour48_active_links": hour48_active_links})\n        ts.update({"hour48_link_likes": hour48_link_likes})\n        ts.update({"hour48_link_comments": hour48_link_comments})\n        ts.update({"hour48_link_shares": hour48_link_shares})\n\n        result.update({\'HotLink_count\':ts})\n#--------------------------------------------------------------------------------------------------------------#\n\n        HotLink=[]\n        Links = fbpl((fbpl.post.team == candidate)  & (fbpl.post.ptype == \'link\') & (fbpl.post.fscore > 0.0 ) ).select( orderby =~fbpl.post.fscore, groupby = fbpl.post.object_id ,limitby=(0,10))\n        i=1\n        for link in Links:\n            ts=OrderedDict()\n            ts.update({"rank": i})\n            ts.update({"score": link[\'fscore\']})\n            ts.update({"tscore": link[\'tscore\']})\n            ts.update({"fscore": link[\'fscore\']})\n            ts.update({"message": link[\'message\']})\n            ts.update({"from_id": link[\'from_id\']})\n            from_picture=fbpl(fbpl.page.pageid==story[\'from_id\']).select(fbpl.page.picture).first()["picture"]\n            ts.update({"from_picture": from_picture})\n            ts.update({"from_name": link[\'from_name\']})\n            created_time = str(link[\'created_time\'])\n            ts.update({"created_time": utc_time(created_time)})\n            updated_time = str(link[\'updated_time\'])\n            ts.update({"updated_time": utc_time(updated_time)})\n            ts.update({"shares_count": link[\'shares_count\']})\n            ts.update({"comment_count": link[\'comment_count\']})\n            ts.update({"likes_count": link[\'likes_count\']})\n            ts.update({"shares_sincelastupdate": link[\'shares_count48\']})\n            ts.update({"comment_sincelastupdate": link[\'comment_count48\']})\n            ts.update({"likes_sincelastupdate": link[\'likes_count48\']})\n            ts.update({"link": link[\'link\']})\n            ts.update({"picture": link[\'picture\']})\n            #picture = getOpengraphImage(link[\'link\'])\n            #if picture == \'\':\n            #    picture =link[\'picture\']\n            #ts.update({"picture": picture})\n            i=i+1\n            HotLink.append(ts)\n\n\n        result.update({\'HotLink\':HotLink})\n\n#--------------------------------------------------------------------------------------------------------------#\n        ts=OrderedDict()\n        ts.update({"hour48_active_videos": hour48_active_videos})\n        ts.update({"hour48_video_likes": hour48_video_likes})\n        ts.update({"hour48_video_comments": hour48_video_comments})\n        ts.update({"hour48_video_shares": hour48_video_shares})\n\n        result.update({\'HotVideo_count\':ts})\n#--------------------------------------------------------------------------------------------------------------#\n\n\n        HotVideo=[]\n        Videos = fbpl((fbpl.post.team == candidate)  & (fbpl.post.ptype == \'video\') & (fbpl.post.fscore > 0.0 ) ).select( orderby =~fbpl.post.fscore, groupby = fbpl.post.object_id ,limitby=(0,5))\n        i=1\n        for video in Videos:\n            ts=OrderedDict()\n            ts.update({"rank": i})\n            ts.update({"score": video[\'fscore\']})\n            ts.update({"tscore": video[\'tscore\']})\n            ts.update({"fscore": video[\'fscore\']})\n            ts.update({"message": video[\'message\']})\n            ts.update({"from_id": video[\'from_id\']})\n            from_picture=fbpl(fbpl.page.pageid==story[\'from_id\']).select(fbpl.page.picture).first()["picture"]\n            ts.update({"from_picture": from_picture})\n            ts.update({"from_name": video[\'from_name\']})\n            created_time = str(video[\'created_time\'])\n            ts.update({"created_time": utc_time(created_time)})\n            updated_time = str(video[\'updated_time\'])\n            ts.update({"updated_time": utc_time(updated_time)})\n            ts.update({"shares_count": video[\'shares_count\']})\n            ts.update({"comment_count": video[\'comment_count\']})\n            ts.update({"likes_count": video[\'likes_count\']})\n            ts.update({"shares_sincelastupdate": video[\'shares_count48\']})\n            ts.update({"comment_sincelastupdate": video[\'comment_count48\']})\n            ts.update({"likes_sincelastupdate": video[\'likes_count48\']})\n            ts.update({"link": video[\'link\']})\n            ts.update({"picture": video[\'picture\']})\n            #picture = getOpengraphImage(link[\'link\'])\n            #if picture == \'\':\n            #    picture =video[\'picture\']\n            #ts.update({"picture": picture})\n            i=i+1\n            HotVideo.append(ts)\n\n        result.update({\'HotVideo\':HotVideo})\n\n        RecentlyVisited=[]\n        Visited = fbpl((fbpl.post.team == candidate)  & (fbpl.post.placeid != \'\') ).select( orderby =~fbpl.post.id, groupby = fbpl.post.placeid ,limitby=(0,5))\n        i=1\n        for visit in Visited:\n            ts=OrderedDict()\n            ts.update({"rank": i})\n            ts.update({"from_id": visit[\'from_id\']})\n            from_picture=fbpl(fbpl.page.pageid==story[\'from_id\']).select(fbpl.page.picture).first()["picture"]\n            ts.update({"from_picture": from_picture})\n            ts.update({"from_name": visit[\'from_name\']})\n            created_time = str(visit[\'created_time\'])\n            ts.update({"created_time": utc_time(created_time)})\n            ts.update({"placeid": visit[\'placeid\']})\n            ts.update({"placename": visit[\'placename\']})\n            row = fbpl(fbpl.place.placeid==visit[\'placeid\']).select().first()\n            if row:\n                ts.update({"latitude": row.latitude})\n                ts.update({"longitude": row.longitude})\n            else:\n                ts.update({"latitude": None})\n                ts.update({"longitude": None})\n            i=i+1\n            RecentlyVisited.append(ts)\n\n        result.update({\'RecentlyVisited\':RecentlyVisited})\n        results.update({candidate:result})\n        file=open(\'/Users/logyuan/Documents/git/ElectionPath/db/taipeimayor.JSON\',\'w\')\n        #file=open(\'Z:\\\\pathgeo\\\\github\\\\ElectionPath\\\\db\\\\taipeimayor.JSON\',\'w\')\n        file.write(json.dumps(results, indent=4 , ensure_ascii=False, separators=(\',\', \': \')))\n        file.close()\n        test = timeseries()\n    return dict(results=results)\n\nresponse._vars=response._caller(timeseries)\n'
p7
sS'snapshot'
p8
(dp9
S'exception'
p10
(dp11
S'__hash__'
p12
S"<method-wrapper '__hash__' of exceptions.TypeError object>"
p13
sS'__setattr__'
p14
S"<method-wrapper '__setattr__' of exceptions.TypeError object>"
p15
sS'__reduce_ex__'
p16
S'<built-in method __reduce_ex__ of exceptions.TypeError object>'
p17
sS'__getslice__'
p18
S"<method-wrapper '__getslice__' of exceptions.TypeError object>"
p19
sS'__getitem__'
p20
S"<method-wrapper '__getitem__' of exceptions.TypeError object>"
p21
sS'__setstate__'
p22
S'<built-in method __setstate__ of exceptions.TypeError object>'
p23
sS'args'
p24
S'("unsupported operand type(s) for -: \'NoneType\' and \'long\'",)'
p25
sS'__reduce__'
p26
S'<built-in method __reduce__ of exceptions.TypeError object>'
p27
sS'__str__'
p28
S"<method-wrapper '__str__' of exceptions.TypeError object>"
p29
sS'__format__'
p30
S'<built-in method __format__ of exceptions.TypeError object>'
p31
sS'__getattribute__'
p32
S"<method-wrapper '__getattribute__' of exceptions.TypeError object>"
p33
sS'__class__'
p34
S"<type 'exceptions.TypeError'>"
p35
sS'__unicode__'
p36
S'<built-in method __unicode__ of exceptions.TypeError object>'
p37
sS'__delattr__'
p38
S"<method-wrapper '__delattr__' of exceptions.TypeError object>"
p39
sS'__subclasshook__'
p40
S'<built-in method __subclasshook__ of type object>'
p41
sS'__repr__'
p42
S"<method-wrapper '__repr__' of exceptions.TypeError object>"
p43
sS'__dict__'
p44
S'{}'
p45
sS'__sizeof__'
p46
S'<built-in method __sizeof__ of exceptions.TypeError object>'
p47
sS'__doc__'
p48
S"'Inappropriate argument type.'"
p49
sS'__init__'
p50
S"<method-wrapper '__init__' of exceptions.TypeError object>"
p51
sS'__new__'
p52
S'<built-in method __new__ of type object>'
p53
ssS'evalue'
p54
S"unsupported operand type(s) for -: 'NoneType' and 'long'"
p55
sS'request'
p56
cgluon.html
XML_unpickle
p57
(S's\xed[\x00\x00<div><table><tr><td style="font-weight:bold;vertical-align:top;">ajax</td><td style="vertical-align:top;">:</td><td><div>False</div></td></tr><tr><td style="font-weight:bold;vertical-align:top;">application</td><td style="vertical-align:top;">:</td><td><div>fbmayor</div></td></tr><tr><td style="font-weight:bold;vertical-align:top;">args</td><td style="vertical-align:top;">:</td><td><div><table></table></div></td></tr><tr><td style="font-weight:bold;vertical-align:top;">cid</td><td style="vertical-align:top;">:</td><td><div>None</div></td></tr><tr><td style="font-weight:bold;vertical-align:top;">client</td><td style="vertical-align:top;">:</td><td><div>127.0.0.1</div></td></tr><tr><td style="font-weight:bold;vertical-align:top;">controller</td><td style="vertical-align:top;">:</td><td><div>ws</div></td></tr><tr><td style="font-weight:bold;vertical-align:top;">cookies</td><td style="vertical-align:top;">:</td><td><div><table><tr><td style="font-weight:bold;vertical-align:top;">session_id_admin</td><td style="vertical-align:top;">:</td><td><div>127.0.0.1-1a6cc40d-5a13-49ea-85ae-273021bdd029<table><tr><td style="font-weight:bold;vertical-align:top;">comment</td><td style="vertical-align:top;">:</td><td><div></div></td></tr><tr><td style="font-weight:bold;vertical-align:top;">domain</td><td style="vertical-align:top;">:</td><td><div></div></td></tr><tr><td style="font-weight:bold;vertical-align:top;">expires</td><td style="vertical-align:top;">:</td><td><div></div></td></tr><tr><td style="font-weight:bold;vertical-align:top;">httponly</td><td style="vertical-align:top;">:</td><td><div></div></td></tr><tr><td style="font-weight:bold;vertical-align:top;">max-age</td><td style="vertical-align:top;">:</td><td><div></div></td></tr><tr><td style="font-weight:bold;vertical-align:top;">path</td><td style="vertical-align:top;">:</td><td><div></div></td></tr><tr><td style="font-weight:bold;vertical-align:top;">secure</td><td style="vertical-align:top;">:</td><td><div></div></td></tr><tr><td style="font-weight:bold;vertical-align:top;">version</td><td style="vertical-align:top;">:</td><td><div></div></td></tr></table></div></td></tr><tr><td style="font-weight:bold;vertical-align:top;">session_id_fbmayor</td><td style="vertical-align:top;">:</td><td><div>127.0.0.1-ed999f64-89b4-4ad6-8130-926131802092<table><tr><td style="font-weight:bold;vertical-align:top;">comment</td><td style="vertical-align:top;">:</td><td><div></div></td></tr><tr><td style="font-weight:bold;vertical-align:top;">domain</td><td style="vertical-align:top;">:</td><td><div></div></td></tr><tr><td style="font-weight:bold;vertical-align:top;">expires</td><td style="vertical-align:top;">:</td><td><div></div></td></tr><tr><td style="font-weight:bold;vertical-align:top;">httponly</td><td style="vertical-align:top;">:</td><td><div></div></td></tr><tr><td style="font-weight:bold;vertical-align:top;">max-age</td><td style="vertical-align:top;">:</td><td><div></div></td></tr><tr><td style="font-weight:bold;vertical-align:top;">path</td><td style="vertical-align:top;">:</td><td><div></div></td></tr><tr><td style="font-weight:bold;vertical-align:top;">secure</td><td style="vertical-align:top;">:</td><td><div></div></td></tr><tr><td style="font-weight:bold;vertical-align:top;">version</td><td style="vertical-align:top;">:</td><td><div></div></td></tr></table></div></td></tr><tr><td style="font-weight:bold;vertical-align:top;">session_id_welcome</td><td style="vertical-align:top;">:</td><td><div>127.0.0.1-a992c42c-366c-43db-be87-f9ab26182efd<table><tr><td style="font-weight:bold;vertical-align:top;">comment</td><td style="vertical-align:top;">:</td><td><div></div></td></tr><tr><td style="font-weight:bold;vertical-align:top;">domain</td><td style="vertical-align:top;">:</td><td><div></div></td></tr><tr><td style="font-weight:bold;vertical-align:top;">expires</td><td style="vertical-align:top;">:</td><td><div></div></td></tr><tr><td style="font-weight:bold;vertical-align:top;">httponly</td><td style="vertical-align:top;">:</td><td><div></div></td></tr><tr><td style="font-weight:bold;vertical-align:top;">max-age</td><td style="vertical-align:top;">:</td><td><div></div></td></tr><tr><td style="font-weight:bold;vertical-align:top;">path</td><td style="vertical-align:top;">:</td><td><div></div></td></tr><tr><td style="font-weight:bold;vertical-align:top;">secure</td><td style="vertical-align:top;">:</td><td><div></div></td></tr><tr><td style="font-weight:bold;vertical-align:top;">version</td><td style="vertical-align:top;">:</td><td><div></div></td></tr></table></div></td></tr></table></div></td></tr><tr><td style="font-weight:bold;vertical-align:top;">env</td><td style="vertical-align:top;">:</td><td><div><table><tr><td style="font-weight:bold;vertical-align:top;">HTTP_ACCEPT</td><td style="vertical-align:top;">:</td><td><div>text/html,application/xhtml+xml,application/xml;q=0.9,*/*;q=0.8</div></td></tr><tr><td style="font-weight:bold;vertical-align:top;">HTTP_ACCEPT_ENCODING</td><td style="vertical-align:top;">:</td><td><div>gzip, deflate</div></td></tr><tr><td style="font-weight:bold;vertical-align:top;">HTTP_ACCEPT_LANGUAGE</td><td style="vertical-align:top;">:</td><td><div>en-US,en;q=0.5</div></td></tr><tr><td style="font-weight:bold;vertical-align:top;">HTTP_CONNECTION</td><td style="vertical-align:top;">:</td><td><div>keep-alive</div></td></tr><tr><td style="font-weight:bold;vertical-align:top;">HTTP_COOKIE</td><td style="vertical-align:top;">:</td><td><div>session_id_welcome=127.0.0.1-a992c42c-366c-43db-be87-f9ab26182efd; session_id_admin=127.0.0.1-1a6cc40d-5a13-49ea-85ae-273021bdd029; session_id_fbmayor=127.0.0.1-ed999f64-89b4-4ad6-8130-926131802092</div></td></tr><tr><td style="font-weight:bold;vertical-align:top;">HTTP_HOST</td><td style="vertical-align:top;">:</td><td><div>127.0.0.1:8088</div></td></tr><tr><td style="font-weight:bold;vertical-align:top;">HTTP_REFERER</td><td style="vertical-align:top;">:</td><td><div>http://127.0.0.1:8088/admin/default/edit/fbmayor/controllers/graphAPI.py?id=controllers__graphAPI__py</div></td></tr><tr><td style="font-weight:bold;vertical-align:top;">HTTP_USER_AGENT</td><td style="vertical-align:top;">:</td><td><div>Mozilla/5.0 (Macintosh; Intel Mac OS X 10.9; rv:29.0) Gecko/20100101 Firefox/29.0</div></td></tr><tr><td style="font-weight:bold;vertical-align:top;">PATH_INFO</td><td style="vertical-align:top;">:</td><td><div>/fbmayor/ws/timeseries</div></td></tr><tr><td style="font-weight:bold;vertical-align:top;">QUERY_STRING</td><td style="vertical-align:top;">:</td><td><div></div></td></tr><tr><td style="font-weight:bold;vertical-align:top;">REMOTE_ADDR</td><td style="vertical-align:top;">:</td><td><div>127.0.0.1</div></td></tr><tr><td style="font-weight:bold;vertical-align:top;">REMOTE_PORT</td><td style="vertical-align:top;">:</td><td><div>50310</div></td></tr><tr><td style="font-weight:bold;vertical-align:top;">REQUEST_METHOD</td><td style="vertical-align:top;">:</td><td><div>GET</div></td></tr><tr><td style="font-weight:bold;vertical-align:top;">SCRIPT_NAME</td><td style="vertical-align:top;">:</td><td><div></div></td></tr><tr><td style="font-weight:bold;vertical-align:top;">SERVER_NAME</td><td style="vertical-align:top;">:</td><td><div>maclogair.local</div></td></tr><tr><td style="font-weight:bold;vertical-align:top;">SERVER_PORT</td><td style="vertical-align:top;">:</td><td><div>8088</div></td></tr><tr><td style="font-weight:bold;vertical-align:top;">SERVER_PROTOCOL</td><td style="vertical-align:top;">:</td><td><div>HTTP/1.1</div></td></tr><tr><td style="font-weight:bold;vertical-align:top;">SERVER_SOFTWARE</td><td style="vertical-align:top;">:</td><td><div>Rocket 1.2.6</div></td></tr><tr><td style="font-weight:bold;vertical-align:top;">app_folders</td><td style="vertical-align:top;">:</td><td><div>set([&#x27;/Applications/web2py.app/Contents/Resources/applications/fbmayor/&#x27;, &#x27;/Applications/web2py.app/Contents/Resources/applications/admin/&#x27;, &#x27;/Applications/web2py.app/Contents/Resources/applications/welcome/&#x27;])</div></td></tr><tr><td style="font-weight:bold;vertical-align:top;">applications_parent</td><td style="vertical-align:top;">:</td><td><div>/Applications/web2py.app/Contents/Resources</div></td></tr><tr><td style="font-weight:bold;vertical-align:top;">cmd_args</td><td style="vertical-align:top;">:</td><td><div><table></table></div></td></tr><tr><td style="font-weight:bold;vertical-align:top;">cmd_options</td><td style="vertical-align:top;">:</td><td><div>&lt;Values at 0x103ffad88: {&#x27;verbose&#x27;: False, &#x27;ip&#x27;: &#x27;127.0.0.1&#x27;, &#x27;debuglevel&#x27;: 30, &#x27;with_scheduler&#x27;: False, &#x27;ips&#x27;: [], &#x27;shutdown_timeout&#x27;: 5, &#x27;taskbar&#x27;: False, &#x27;with_coverage&#x27;: False, &#x27;port&#x27;: 8000, &#x27;maxthreads&#x27;: None, &#x27;softcron&#x27;: False, &#x27;server_name&#x27;: &#x27;maclogair.local&#x27;, &#x27;bpython&#x27;: False, &#x27;nogui&#x27;: False, &#x27;pid_filename&#x27;: &#x27;httpserver.pid&#x27;, &#x27;extcron&#x27;: False, &#x27;runcron&#x27;: False, &#x27;run_system_tests&#x27;: False, &#x27;test&#x27;: None, &#x27;folder&#x27;: &#x27;/Applications/web2py.app/Contents/Resources&#x27;, &#x27;config&#x27;: &#x27;&#x27;, &#x27;minthreads&#x27;: None, &#x27;shell&#x27;: None, &#x27;run&#x27;: &#x27;&#x27;, &#x27;log_filename&#x27;: &#x27;httpserver.log&#x27;, &#x27;profiler_dir&#x27;: None, &#x27;args&#x27;: [&#x27;&#x27;], &#x27;socket_timeout&#x27;: 5, &#x27;ssl_ca_certificate&#x27;: None, &#x27;scheduler&#x27;: None, &#x27;interfaces&#x27;: None, &#x27;ssl_private_key&#x27;: &#x27;&#x27;, &#x27;scheduler_groups&#x27;: None, &#x27;password&#x27;: &#x27;&lt;ask&gt;&#x27;, &#x27;request_queue_size&#x27;: 5, &#x27;ssl_certificate&#x27;: &#x27;&#x27;, &#x27;cronjob&#x27;: False, &#x27;numthreads&#x27;: None, &#x27;quiet&#x27;: False, &#x27;import_models&#x27;: False, &#x27;timeout&#x27;: 10, &#x27;plain&#x27;: False, &#x27;nobanner&#x27;: False}&gt;</div></td></tr><tr><td style="font-weight:bold;vertical-align:top;">db_sessions</td><td style="vertical-align:top;">:</td><td><div>set([])</div></td></tr><tr><td style="font-weight:bold;vertical-align:top;">debugging</td><td style="vertical-align:top;">:</td><td><div>True</div></td></tr><tr><td style="font-weight:bold;vertical-align:top;">gluon_parent</td><td style="vertical-align:top;">:</td><td><div>/Applications/web2py.app/Contents/Resources</div></td></tr><tr><td style="font-weight:bold;vertical-align:top;">http_accept</td><td style="vertical-align:top;">:</td><td><div>text/html,application/xhtml+xml,application/xml;q=0.9,*/*;q=0.8</div></td></tr><tr><td style="font-weight:bold;vertical-align:top;">http_accept_encoding</td><td style="vertical-align:top;">:</td><td><div>gzip, deflate</div></td></tr><tr><td style="font-weight:bold;vertical-align:top;">http_accept_language</td><td style="vertical-align:top;">:</td><td><div>en-US,en;q=0.5</div></td></tr><tr><td style="font-weight:bold;vertical-align:top;">http_connection</td><td style="vertical-align:top;">:</td><td><div>keep-alive</div></td></tr><tr><td style="font-weight:bold;vertical-align:top;">http_cookie</td><td style="vertical-align:top;">:</td><td><div>session_id_welcome=127.0.0.1-a992c42c-366c-43db-be87-f9ab26182efd; session_id_admin=127.0.0.1-1a6cc40d-5a13-49ea-85ae-273021bdd029; session_id_fbmayor=127.0.0.1-ed999f64-89b4-4ad6-8130-926131802092</div></td></tr><tr><td style="font-weight:bold;vertical-align:top;">http_host</td><td style="vertical-align:top;">:</td><td><div>127.0.0.1:8088</div></td></tr><tr><td style="font-weight:bold;vertical-align:top;">http_referer</td><td style="vertical-align:top;">:</td><td><div>http://127.0.0.1:8088/admin/default/edit/fbmayor/controllers/graphAPI.py?id=controllers__graphAPI__py</div></td></tr><tr><td style="font-weight:bold;vertical-align:top;">http_user_agent</td><td style="vertical-align:top;">:</td><td><div>Mozilla/5.0 (Macintosh; Intel Mac OS X 10.9; rv:29.0) Gecko/20100101 Firefox/29.0</div></td></tr><tr><td style="font-weight:bold;vertical-align:top;">is_jython</td><td style="vertical-align:top;">:</td><td><div>False</div></td></tr><tr><td style="font-weight:bold;vertical-align:top;">is_pypy</td><td style="vertical-align:top;">:</td><td><div>False</div></td></tr><tr><td style="font-weight:bold;vertical-align:top;">is_source</td><td style="vertical-align:top;">:</td><td><div>True</div></td></tr><tr><td style="font-weight:bold;vertical-align:top;">local_hosts</td><td style="vertical-align:top;">:</td><td><div><table><tr><td><div>192.168.1.103</div></td></tr><tr><td><div>::ffff:127.0.0.1</div></td></tr><tr><td><div>::1</div></td></tr><tr><td><div>fe80::60c:ceff:fee3:df4a%en0</div></td></tr><tr><td><div>maclogair.local</div></td></tr><tr><td><div>103.1.168.192.in-addr.arpa</div></td></tr><tr><td><div>127.0.0.1</div></td></tr></table></div></td></tr><tr><td style="font-weight:bold;vertical-align:top;">path_info</td><td style="vertical-align:top;">:</td><td><div>/fbmayor/ws/timeseries</div></td></tr><tr><td style="font-weight:bold;vertical-align:top;">query_string</td><td style="vertical-align:top;">:</td><td><div></div></td></tr><tr><td style="font-weight:bold;vertical-align:top;">remote_addr</td><td style="vertical-align:top;">:</td><td><div>127.0.0.1</div></td></tr><tr><td style="font-weight:bold;vertical-align:top;">remote_port</td><td style="vertical-align:top;">:</td><td><div>50310</div></td></tr><tr><td style="font-weight:bold;vertical-align:top;">request_method</td><td style="vertical-align:top;">:</td><td><div>GET</div></td></tr><tr><td style="font-weight:bold;vertical-align:top;">request_uri</td><td style="vertical-align:top;">:</td><td><div>/fbmayor/ws/timeseries</div></td></tr><tr><td style="font-weight:bold;vertical-align:top;">script_name</td><td style="vertical-align:top;">:</td><td><div></div></td></tr><tr><td style="font-weight:bold;vertical-align:top;">server_name</td><td style="vertical-align:top;">:</td><td><div>maclogair.local</div></td></tr><tr><td style="font-weight:bold;vertical-align:top;">server_port</td><td style="vertical-align:top;">:</td><td><div>8088</div></td></tr><tr><td style="font-weight:bold;vertical-align:top;">server_protocol</td><td style="vertical-align:top;">:</td><td><div>HTTP/1.1</div></td></tr><tr><td style="font-weight:bold;vertical-align:top;">server_software</td><td style="vertical-align:top;">:</td><td><div>Rocket 1.2.6</div></td></tr><tr><td style="font-weight:bold;vertical-align:top;">web2py_path</td><td style="vertical-align:top;">:</td><td><div>/Applications/web2py.app/Contents/Resources</div></td></tr><tr><td style="font-weight:bold;vertical-align:top;">web2py_version</td><td style="vertical-align:top;">:</td><td><div>2.8.2-stable+timestamp.2013.11.28.13.54.07</div></td></tr><tr><td style="font-weight:bold;vertical-align:top;">wsgi.errors</td><td style="vertical-align:top;">:</td><td><div>&lt;open file &#x27;&lt;stderr&gt;&#x27;, mode &#x27;w&#x27; at 0x10028b1e0&gt;</div></td></tr><tr><td style="font-weight:bold;vertical-align:top;">wsgi.file_wrapper</td><td style="vertical-align:top;">:</td><td><div>&lt;class wsgiref.util.FileWrapper at 0x103fb3390&gt;</div></td></tr><tr><td style="font-weight:bold;vertical-align:top;">wsgi.input</td><td style="vertical-align:top;">:</td><td><div>&lt;socket._fileobject object at 0x113c45950&gt;</div></td></tr><tr><td style="font-weight:bold;vertical-align:top;">wsgi.multiprocess</td><td style="vertical-align:top;">:</td><td><div>False</div></td></tr><tr><td style="font-weight:bold;vertical-align:top;">wsgi.multithread</td><td style="vertical-align:top;">:</td><td><div>True</div></td></tr><tr><td style="font-weight:bold;vertical-align:top;">wsgi.run_once</td><td style="vertical-align:top;">:</td><td><div>False</div></td></tr><tr><td style="font-weight:bold;vertical-align:top;">wsgi.url_scheme</td><td style="vertical-align:top;">:</td><td><div>http</div></td></tr><tr><td style="font-weight:bold;vertical-align:top;">wsgi.version</td><td style="vertical-align:top;">:</td><td><div><table><tr><td><div>1</div></td></tr><tr><td><div>0</div></td></tr></table></div></td></tr><tr><td style="font-weight:bold;vertical-align:top;">wsgi_errors</td><td style="vertical-align:top;">:</td><td><div>&lt;open file &#x27;&lt;stderr&gt;&#x27;, mode &#x27;w&#x27; at 0x10028b1e0&gt;</div></td></tr><tr><td style="font-weight:bold;vertical-align:top;">wsgi_file_wrapper</td><td style="vertical-align:top;">:</td><td><div>&lt;class wsgiref.util.FileWrapper at 0x103fb3390&gt;</div></td></tr><tr><td style="font-weight:bold;vertical-align:top;">wsgi_input</td><td style="vertical-align:top;">:</td><td><div>&lt;socket._fileobject object at 0x113c45950&gt;</div></td></tr><tr><td style="font-weight:bold;vertical-align:top;">wsgi_multiprocess</td><td style="vertical-align:top;">:</td><td><div>False</div></td></tr><tr><td style="font-weight:bold;vertical-align:top;">wsgi_multithread</td><td style="vertical-align:top;">:</td><td><div>True</div></td></tr><tr><td style="font-weight:bold;vertical-align:top;">wsgi_run_once</td><td style="vertical-align:top;">:</td><td><div>False</div></td></tr><tr><td style="font-weight:bold;vertical-align:top;">wsgi_url_scheme</td><td style="vertical-align:top;">:</td><td><div>http</div></td></tr><tr><td style="font-weight:bold;vertical-align:top;">wsgi_version</td><td style="vertical-align:top;">:</td><td><div><table><tr><td><div>1</div></td></tr><tr><td><div>0</div></td></tr></table></div></td></tr></table></div></td></tr><tr><td style="font-weight:bold;vertical-align:top;">extension</td><td style="vertical-align:top;">:</td><td><div>html</div></td></tr><tr><td style="font-weight:bold;vertical-align:top;">folder</td><td style="vertical-align:top;">:</td><td><div>/Applications/web2py.app/Contents/Resources/applications/fbmayor/</div></td></tr><tr><td style="font-weight:bold;vertical-align:top;">function</td><td style="vertical-align:top;">:</td><td><div>timeseries</div></td></tr><tr><td style="font-weight:bold;vertical-align:top;">global_settings</td><td style="vertical-align:top;">:</td><td><div><table><tr><td style="font-weight:bold;vertical-align:top;">app_folders</td><td style="vertical-align:top;">:</td><td><div>set([&#x27;/Applications/web2py.app/Contents/Resources/applications/fbmayor/&#x27;, &#x27;/Applications/web2py.app/Contents/Resources/applications/admin/&#x27;, &#x27;/Applications/web2py.app/Contents/Resources/applications/welcome/&#x27;])</div></td></tr><tr><td style="font-weight:bold;vertical-align:top;">applications_parent</td><td style="vertical-align:top;">:</td><td><div>/Applications/web2py.app/Contents/Resources</div></td></tr><tr><td style="font-weight:bold;vertical-align:top;">cmd_args</td><td style="vertical-align:top;">:</td><td><div><table></table></div></td></tr><tr><td style="font-weight:bold;vertical-align:top;">cmd_options</td><td style="vertical-align:top;">:</td><td><div>&lt;Values at 0x103ffad88: {&#x27;verbose&#x27;: False, &#x27;ip&#x27;: &#x27;127.0.0.1&#x27;, &#x27;debuglevel&#x27;: 30, &#x27;with_scheduler&#x27;: False, &#x27;ips&#x27;: [], &#x27;shutdown_timeout&#x27;: 5, &#x27;taskbar&#x27;: False, &#x27;with_coverage&#x27;: False, &#x27;port&#x27;: 8000, &#x27;maxthreads&#x27;: None, &#x27;softcron&#x27;: False, &#x27;server_name&#x27;: &#x27;maclogair.local&#x27;, &#x27;bpython&#x27;: False, &#x27;nogui&#x27;: False, &#x27;pid_filename&#x27;: &#x27;httpserver.pid&#x27;, &#x27;extcron&#x27;: False, &#x27;runcron&#x27;: False, &#x27;run_system_tests&#x27;: False, &#x27;test&#x27;: None, &#x27;folder&#x27;: &#x27;/Applications/web2py.app/Contents/Resources&#x27;, &#x27;config&#x27;: &#x27;&#x27;, &#x27;minthreads&#x27;: None, &#x27;shell&#x27;: None, &#x27;run&#x27;: &#x27;&#x27;, &#x27;log_filename&#x27;: &#x27;httpserver.log&#x27;, &#x27;profiler_dir&#x27;: None, &#x27;args&#x27;: [&#x27;&#x27;], &#x27;socket_timeout&#x27;: 5, &#x27;ssl_ca_certificate&#x27;: None, &#x27;scheduler&#x27;: None, &#x27;interfaces&#x27;: None, &#x27;ssl_private_key&#x27;: &#x27;&#x27;, &#x27;scheduler_groups&#x27;: None, &#x27;password&#x27;: &#x27;&lt;ask&gt;&#x27;, &#x27;request_queue_size&#x27;: 5, &#x27;ssl_certificate&#x27;: &#x27;&#x27;, &#x27;cronjob&#x27;: False, &#x27;numthreads&#x27;: None, &#x27;quiet&#x27;: False, &#x27;import_models&#x27;: False, &#x27;timeout&#x27;: 10, &#x27;plain&#x27;: False, &#x27;nobanner&#x27;: False}&gt;</div></td></tr><tr><td style="font-weight:bold;vertical-align:top;">db_sessions</td><td style="vertical-align:top;">:</td><td><div>set([])</div></td></tr><tr><td style="font-weight:bold;vertical-align:top;">debugging</td><td style="vertical-align:top;">:</td><td><div>True</div></td></tr><tr><td style="font-weight:bold;vertical-align:top;">gluon_parent</td><td style="vertical-align:top;">:</td><td><div>/Applications/web2py.app/Contents/Resources</div></td></tr><tr><td style="font-weight:bold;vertical-align:top;">is_jython</td><td style="vertical-align:top;">:</td><td><div>False</div></td></tr><tr><td style="font-weight:bold;vertical-align:top;">is_pypy</td><td style="vertical-align:top;">:</td><td><div>False</div></td></tr><tr><td style="font-weight:bold;vertical-align:top;">is_source</td><td style="vertical-align:top;">:</td><td><div>True</div></td></tr><tr><td style="font-weight:bold;vertical-align:top;">local_hosts</td><td style="vertical-align:top;">:</td><td><div><table><tr><td><div>192.168.1.103</div></td></tr><tr><td><div>::ffff:127.0.0.1</div></td></tr><tr><td><div>::1</div></td></tr><tr><td><div>fe80::60c:ceff:fee3:df4a%en0</div></td></tr><tr><td><div>maclogair.local</div></td></tr><tr><td><div>103.1.168.192.in-addr.arpa</div></td></tr><tr><td><div>127.0.0.1</div></td></tr></table></div></td></tr><tr><td style="font-weight:bold;vertical-align:top;">web2py_version</td><td style="vertical-align:top;">:</td><td><div>2.8.2-stable+timestamp.2013.11.28.13.54.07</div></td></tr></table></div></td></tr><tr><td style="font-weight:bold;vertical-align:top;">is_https</td><td style="vertical-align:top;">:</td><td><div>False</div></td></tr><tr><td style="font-weight:bold;vertical-align:top;">is_local</td><td style="vertical-align:top;">:</td><td><div>True</div></td></tr><tr><td style="font-weight:bold;vertical-align:top;">is_restful</td><td style="vertical-align:top;">:</td><td><div>False</div></td></tr><tr><td style="font-weight:bold;vertical-align:top;">now</td><td style="vertical-align:top;">:</td><td><div>datetime.datetime(2014, 5, 7, 18, 26, 41, 340727)</div></td></tr><tr><td style="font-weight:bold;vertical-align:top;">raw_args</td><td style="vertical-align:top;">:</td><td><div></div></td></tr><tr><td style="font-weight:bold;vertical-align:top;">raw_extension</td><td style="vertical-align:top;">:</td><td><div>None</div></td></tr><tr><td style="font-weight:bold;vertical-align:top;">url</td><td style="vertical-align:top;">:</td><td><div>/fbmayor/ws/timeseries</div></td></tr><tr><td style="font-weight:bold;vertical-align:top;">utcnow</td><td style="vertical-align:top;">:</td><td><div>datetime.datetime(2014, 5, 7, 10, 26, 41, 340737)</div></td></tr><tr><td style="font-weight:bold;vertical-align:top;">uuid</td><td style="vertical-align:top;">:</td><td><div>fbmayor/127.0.0.1.2014-05-07.18-26-41.0cdec318-270d-4e82-8f1a-a0f9256d53c9</div></td></tr><tr><td style="font-weight:bold;vertical-align:top;">wsgi</td><td style="vertical-align:top;">:</td><td><div>&lt;gluon.main.LazyWSGI object at 0x11d8d78d0&gt;</div></td></tr></table></div>'
tRp58
sS'frames'
p59
(lp60
(dp61
S'file'
p62
S'/Applications/web2py.app/Contents/Resources/gluon/restricted.py'
p63
sS'dump'
p64
(dp65
S'environment'
p66
S"{'A': <class 'gluon.html.A'>, 'ANY_OF': <class 'gluon.validators.ANY_OF'>, 'Auth': <class 'gluon.tools.Auth'>, 'B': <class 'gluon.html.B'>, 'BEAUTIFY': <class 'gluon.html.BEAUTIFY'>, 'BODY': <class 'gluon.html.BODY'>, 'BR': <class 'gluon.html.BR'>, 'BUTTON': <class 'gluon.html.BUTTON'>, 'CAT': <class 'gluon.html.CAT'>, 'CENTER': <class 'gluon.html.CENTER'>, ...}"
p67
sS'ccode'
p68
S'<code object <module> at 0x112e024b0, file "/App.../applications/fbmayor/controllers/ws.py", line 2>'
p69
ssS'lnum'
p70
I217
sS'lines'
p71
(dp72
I212
S'    try:'
p73
sI213
S'        if isinstance(code, types.CodeType):'
p74
sI214
S'            ccode = code'
p75
sI215
S'        else:'
p76
sI216
S'            ccode = compile2(code, layer)'
p77
sI217
S'        exec ccode in environment'
p78
sI218
S'    except HTTP:'
p79
sI219
S'        raise'
p80
sI220
S'    except RestrictedError:'
p81
sI221
S'        # do not encapsulate (obfuscate) the original RestrictedError'
p82
ssS'call'
p83
S"(code='# coding:utf8\\nimport ExtendedOpenGraph\\nimport js...ts)\\n\\nresponse._vars=response._caller(timeseries)\\n', environment={'A': <class 'gluon.html.A'>, 'ANY_OF': <class 'gluon.validators.ANY_OF'>, 'Auth': <class 'gluon.tools.Auth'>, 'B': <class 'gluon.html.B'>, 'BEAUTIFY': <class 'gluon.html.BEAUTIFY'>, 'BODY': <class 'gluon.html.BODY'>, 'BR': <class 'gluon.html.BR'>, 'BUTTON': <class 'gluon.html.BUTTON'>, 'CAT': <class 'gluon.html.CAT'>, 'CENTER': <class 'gluon.html.CENTER'>, ...}, layer='/Applications/web2py.app/Contents/Resources/applications/fbmayor/controllers/ws.py')"
p84
sS'func'
p85
S'restricted'
p86
sa(dp87
g62
S'/Applications/web2py.app/Contents/Resources/applications/fbmayor/controllers/ws.py'
p88
sg64
(dp89
sg70
I463
sg71
(dp90
I452
S'            RecentlyVisited.append(ts)'
p91
sI453
S''
sI454
S"        result.update({'RecentlyVisited':RecentlyVisited})"
p92
sI455
S'        results.update({candidate:result})'
p93
sI456
S"        file=open('/Users/logyuan/Documents/git/ElectionPath/db/taipeimayor.JSON','w')"
p94
sI457
S"        #file=open('Z:\\\\pathgeo\\\\github\\\\ElectionPath\\\\db\\\\taipeimayor.JSON','w')"
p95
sI458
S"        file.write(json.dumps(results, indent=4 , ensure_ascii=False, separators=(',', ': ')))"
p96
sI459
S'        file.close()'
p97
sI460
S'        test = timeseries()'
p98
sI461
S'    return dict(results=results)'
p99
ssg83
S'()'
p100
sg85
S'<module>'
p101
sa(dp102
g62
S'/Applications/web2py.app/Contents/Resources/gluon/globals.py'
p103
sg64
(dp104
S'self'
p105
S'undefined'
p106
sS'f'
S'<function timeseries>'
p107
ssg70
I372
sg71
(dp108
I367
S'        self.menu = []             # used by the default view layout'
p109
sI368
S'        self.files = []            # used by web2py_ajax.html'
p110
sI369
S'        self.generic_patterns = []  # patterns to allow generic views'
p111
sI370
S"        self.delimiters = ('{{', '}}')"
p112
sI371
S'        self._vars = None'
p113
sI372
S'        self._caller = lambda f: f()'
p114
sI373
S'        self._view_environment = None'
p115
sI374
S'        self._custom_commit = None'
p116
sI375
S'        self._custom_rollback = None'
p117
sI376
S''
ssg83
S'(f=<function timeseries>)'
p118
sg85
S'<lambda>'
p119
sa(dp120
g62
S'/Applications/web2py.app/Contents/Resources/applications/fbmayor/controllers/ws.py'
p121
sg64
(dp122
S'row2'
p123
S"<Row {'total_post_likes': None, 'were_here_count...x87\\xe5\\x93\\xb2', 'hour48_story_comments': 118L}>"
p124
sS'row2.total_post_likes'
p125
S'None'
p126
sS'totalPostLikes.append'
p127
S'<built-in method append of list object>'
p128
sS'totalPostLikes'
p129
S'[2672L]'
p130
sS'row3'
p131
S"<Row {'total_post_likes': 351482L, 'were_here_co...x87\\xe5\\x93\\xb2', 'hour48_story_comments': 119L}>"
p132
sS'row3.total_post_likes'
p133
S'351482L'
p134
ssg70
I84
sg71
(dp135
I79
S'        posts_today=len(Posts)'
p136
sI80
S'        totalPosts.append(posts_today)'
p137
sI81
S''
sI82
S'        if row3:'
p138
sI83
S'            likes.append(row2.likes-row3.likes)'
p139
sI84
S'            totalPostLikes.append(row2.total_post_likes-row3.total_post_likes)'
p140
sI85
S'            totalPostComments.append(row2.total_post_comments-row3.total_post_comments)'
p141
sI86
S'            totalPostShares.append(row2.total_post_shares-row3.total_post_shares)'
p142
sI87
S''
sI88
S'        else:'
p143
ssg83
S'()'
p144
sg85
S'timeseries'
p145
sasS'pyver'
p146
S'Python 2.7.5: /Library/Frameworks/Python.framework/Versions/2.7/Resources/Python.app/Contents/MacOS/Python (prefix: /Library/Frameworks/Python.framework/Versions/2.7)'
p147
sS'session'
p148
g57
(S's\xc0\x01\x00\x00<div><table><tr><td style="font-weight:bold;vertical-align:top;">flash</td><td style="vertical-align:top;">:</td><td><div>None</div></td></tr><tr><td style="font-weight:bold;vertical-align:top;">last_orderby</td><td style="vertical-align:top;">:</td><td><div>None</div></td></tr><tr><td style="font-weight:bold;vertical-align:top;">last_query</td><td style="vertical-align:top;">:</td><td><div>fbpl.team_counts.id&gt;0</div></td></tr></table></div>'
tRp149
sS'etype'
p150
S"<type 'exceptions.TypeError'>"
p151
sS'date'
p152
S'Wed May  7 18:26:42 2014'
p153
sS'response'
p154
g57
(S's\x1b&\x00\x00<div><table><tr><td style="font-weight:bold;vertical-align:top;">body</td><td style="vertical-align:top;">:</td><td><div>&lt;cStringIO.StringO object at 0x10fedee68&gt;</div></td></tr><tr><td style="font-weight:bold;vertical-align:top;">cookies</td><td style="vertical-align:top;">:</td><td><div><table><tr><td style="font-weight:bold;vertical-align:top;">session_id_fbmayor</td><td style="vertical-align:top;">:</td><td><div>127.0.0.1-ed999f64-89b4-4ad6-8130-926131802092<table><tr><td style="font-weight:bold;vertical-align:top;">comment</td><td style="vertical-align:top;">:</td><td><div></div></td></tr><tr><td style="font-weight:bold;vertical-align:top;">domain</td><td style="vertical-align:top;">:</td><td><div></div></td></tr><tr><td style="font-weight:bold;vertical-align:top;">expires</td><td style="vertical-align:top;">:</td><td><div></div></td></tr><tr><td style="font-weight:bold;vertical-align:top;">httponly</td><td style="vertical-align:top;">:</td><td><div></div></td></tr><tr><td style="font-weight:bold;vertical-align:top;">max-age</td><td style="vertical-align:top;">:</td><td><div></div></td></tr><tr><td style="font-weight:bold;vertical-align:top;">path</td><td style="vertical-align:top;">:</td><td><div>/</div></td></tr><tr><td style="font-weight:bold;vertical-align:top;">secure</td><td style="vertical-align:top;">:</td><td><div></div></td></tr><tr><td style="font-weight:bold;vertical-align:top;">version</td><td style="vertical-align:top;">:</td><td><div></div></td></tr></table></div></td></tr></table></div></td></tr><tr><td style="font-weight:bold;vertical-align:top;">delimiters</td><td style="vertical-align:top;">:</td><td><div><table><tr><td><div>{{</div></td></tr><tr><td><div>}}</div></td></tr></table></div></td></tr><tr><td style="font-weight:bold;vertical-align:top;">files</td><td style="vertical-align:top;">:</td><td><div><table></table></div></td></tr><tr><td style="font-weight:bold;vertical-align:top;">flash</td><td style="vertical-align:top;">:</td><td><div></div></td></tr><tr><td style="font-weight:bold;vertical-align:top;">generic_patterns</td><td style="vertical-align:top;">:</td><td><div><table></table></div></td></tr><tr><td style="font-weight:bold;vertical-align:top;">google_analytics_id</td><td style="vertical-align:top;">:</td><td><div>None</div></td></tr><tr><td style="font-weight:bold;vertical-align:top;">headers</td><td style="vertical-align:top;">:</td><td><div><table><tr><td style="font-weight:bold;vertical-align:top;">X-Powered-By</td><td style="vertical-align:top;">:</td><td><div>web2py</div></td></tr></table></div></td></tr><tr><td style="font-weight:bold;vertical-align:top;">logo</td><td style="vertical-align:top;">:</td><td><div><a class="brand" data-w2p_disable_with="default" href="http://www.web2py.com/"><b>web<span>2</span>py</b>&trade;&nbsp;</a></div></td></tr><tr><td style="font-weight:bold;vertical-align:top;">menu</td><td style="vertical-align:top;">:</td><td><div><table><tr><td><div><table><tr><td><div>POI</div></td></tr><tr><td><div>False</div></td></tr><tr><td><div>/fbmayor/default/display_form</div></td></tr><tr><td><div><table><tr><td><div><table><tr><td><div>Add POI</div></td></tr><tr><td><div>False</div></td></tr><tr><td><div>/fbmayor/default/addplace</div></td></tr></table></div></td></tr></table></div></td></tr></table></div></td></tr><tr><td><div><table><tr><td><div>People</div></td></tr><tr><td><div>False</div></td></tr><tr><td><div>/fbmayor/default/display_people</div></td></tr><tr><td><div><table><tr><td><div><table><tr><td><div>Add People</div></td></tr><tr><td><div>False</div></td></tr><tr><td><div>/fbmayor/default/addpeople</div></td></tr></table></div></td></tr></table></div></td></tr></table></div></td></tr><tr><td><div><table><tr><td><div>Page</div></td></tr><tr><td><div>False</div></td></tr><tr><td><div>/fbmayor/default/display_page</div></td></tr><tr><td><div><table><tr><td><div><table><tr><td><div>Page Count</div></td></tr><tr><td><div>False</div></td></tr><tr><td><div>/fbmayor/default/index</div></td></tr></table></div></td></tr><tr><td><div><table><tr><td><div>Add Page</div></td></tr><tr><td><div>False</div></td></tr><tr><td><div>/fbmayor/default/addpage</div></td></tr></table></div></td></tr><tr><td><div><table><tr><td><div>Update Pages</div></td></tr><tr><td><div>False</div></td></tr><tr><td><div>/fbmayor/graphAPI/countAllPageSocialCount</div></td></tr></table></div></td></tr></table></div></td></tr></table></div></td></tr><tr><td><div><table><tr><td><div>Post</div></td></tr><tr><td><div>False</div></td></tr><tr><td><div>/fbmayor/default/display_post</div></td></tr><tr><td><div><table><tr><td><div><table><tr><td><div>Add Post</div></td></tr><tr><td><div>False</div></td></tr><tr><td><div>/fbmayor/default/addpost</div></td></tr></table></div></td></tr><tr><td><div><table><tr><td><div>Get Post</div></td></tr><tr><td><div>False</div></td></tr><tr><td><div>/fbmayor/graphAPI/collect_posts</div></td></tr></table></div></td></tr><tr><td><div><table><tr><td><div>Update Posts</div></td></tr><tr><td><div>False</div></td></tr><tr><td><div>/fbmayor/graphAPI/countAllPostSocialCount</div></td></tr></table></div></td></tr></table></div></td></tr></table></div></td></tr><tr><td><div><table><tr><td><div>Event</div></td></tr><tr><td><div>False</div></td></tr><tr><td><div>/fbmayor/default/display_event</div></td></tr><tr><td><div><table><tr><td><div><table><tr><td><div>Add Event</div></td></tr><tr><td><div>False</div></td></tr><tr><td><div>/fbmayor/default/addevent</div></td></tr></table></div></td></tr></table></div></td></tr></table></div></td></tr></table></div></td></tr><tr><td style="font-weight:bold;vertical-align:top;">meta</td><td style="vertical-align:top;">:</td><td><div><table><tr><td style="font-weight:bold;vertical-align:top;">author</td><td style="vertical-align:top;">:</td><td><div>Your Name &lt;you@example.com&gt;</div></td></tr><tr><td style="font-weight:bold;vertical-align:top;">description</td><td style="vertical-align:top;">:</td><td><div>a cool new app</div></td></tr><tr><td style="font-weight:bold;vertical-align:top;">generator</td><td style="vertical-align:top;">:</td><td><div>Web2py Web Framework</div></td></tr><tr><td style="font-weight:bold;vertical-align:top;">keywords</td><td style="vertical-align:top;">:</td><td><div>web2py, python, framework</div></td></tr></table></div></td></tr><tr><td style="font-weight:bold;vertical-align:top;">models_to_run</td><td style="vertical-align:top;">:</td><td><div><table><tr><td><div>^\\w+\\.py$</div></td></tr><tr><td><div>^ws/\\w+\\.py$</div></td></tr><tr><td><div>^ws/timeseries/\\w+\\.py$</div></td></tr></table></div></td></tr><tr><td style="font-weight:bold;vertical-align:top;">postprocessing</td><td style="vertical-align:top;">:</td><td><div><table></table></div></td></tr><tr><td style="font-weight:bold;vertical-align:top;">session_client</td><td style="vertical-align:top;">:</td><td><div>127.0.0.1</div></td></tr><tr><td style="font-weight:bold;vertical-align:top;">session_cookie_compression_level</td><td style="vertical-align:top;">:</td><td><div>None</div></td></tr><tr><td style="font-weight:bold;vertical-align:top;">session_cookie_expires</td><td style="vertical-align:top;">:</td><td><div>None</div></td></tr><tr><td style="font-weight:bold;vertical-align:top;">session_cookie_key</td><td style="vertical-align:top;">:</td><td><div>None</div></td></tr><tr><td style="font-weight:bold;vertical-align:top;">session_data_name</td><td style="vertical-align:top;">:</td><td><div>session_data_fbmayor</div></td></tr><tr><td style="font-weight:bold;vertical-align:top;">session_file</td><td style="vertical-align:top;">:</td><td><div>&lt;open file &#x27;/Applications/web2py.app/Contents/Resources/applications/fbmayor/sessions/127.0.0.1-ed999f64-89b4-4ad6-8130-926131802092&#x27;, mode &#x27;rb+&#x27; at 0x10d8f7930&gt;</div></td></tr><tr><td style="font-weight:bold;vertical-align:top;">session_filename</td><td style="vertical-align:top;">:</td><td><div>/Applications/web2py.app/Contents/Resources/applications/fbmayor/sessions/127.0.0.1-ed999f64-89b4-4ad6-8130-926131802092</div></td></tr><tr><td style="font-weight:bold;vertical-align:top;">session_hash</td><td style="vertical-align:top;">:</td><td><div>c5cc0641bd06c9bb324a4bffa561b132</div></td></tr><tr><td style="font-weight:bold;vertical-align:top;">session_id</td><td style="vertical-align:top;">:</td><td><div>127.0.0.1-ed999f64-89b4-4ad6-8130-926131802092</div></td></tr><tr><td style="font-weight:bold;vertical-align:top;">session_id_name</td><td style="vertical-align:top;">:</td><td><div>session_id_fbmayor</div></td></tr><tr><td style="font-weight:bold;vertical-align:top;">session_locked</td><td style="vertical-align:top;">:</td><td><div>True</div></td></tr><tr><td style="font-weight:bold;vertical-align:top;">session_masterapp</td><td style="vertical-align:top;">:</td><td><div>fbmayor</div></td></tr><tr><td style="font-weight:bold;vertical-align:top;">session_new</td><td style="vertical-align:top;">:</td><td><div>False</div></td></tr><tr><td style="font-weight:bold;vertical-align:top;">session_storage_type</td><td style="vertical-align:top;">:</td><td><div>file</div></td></tr><tr><td style="font-weight:bold;vertical-align:top;">status</td><td style="vertical-align:top;">:</td><td><div>200</div></td></tr><tr><td style="font-weight:bold;vertical-align:top;">subtitle</td><td style="vertical-align:top;">:</td><td><div>customize me!</div></td></tr><tr><td style="font-weight:bold;vertical-align:top;">title</td><td style="vertical-align:top;">:</td><td><div>Fbmayor</div></td></tr><tr><td style="font-weight:bold;vertical-align:top;">view</td><td style="vertical-align:top;">:</td><td><div>ws/timeseries.html</div></td></tr></table></div>'
tRp155
sS'locals'
p156
(dp157
S'posts_today'
p158
S'4'
sS'totalPosts'
p159
S'[6, 4]'
p160
sS'likes'
p161
S'[9L, 102L]'
p162
sS'row'
p163
S"<Row {'total_post_likes': 128419L, 'were_here_co...\\x9d\\xe6\\x96\\x87', 'hour48_story_comments': 23L}>"
p164
sS'date1'
p165
S'datetime.datetime(2014, 5, 2, 0, 0)'
p166
sS'date3'
p167
S'datetime.datetime(2014, 5, 2, 16, 0)'
p168
sS'date2'
p169
S'datetime.datetime(2014, 5, 4, 0, 0)'
p170
sS'date4'
p171
S'datetime.datetime(2014, 5, 3, 16, 0)'
p172
sS'candidates'
p173
S"['\\xe9\\x80\\xa3\\xe5\\x8b\\x9d\\xe6\\x96\\x87', '\\xe6\\x9f\\xaf\\xe6\\x96\\x87\\xe5\\x93\\xb2']"
p174
sS'totalPostShares'
p175
S'[20L]'
p176
sS'talkingAbout'
p177
S'[7347L, 46207L]'
p178
sS'row1'
p179
S"<Row {'total_post_likes': 125747L, 'were_here_co...\\x9d\\xe6\\x96\\x87', 'hour48_story_comments': 28L}>"
p180
sS'totalPostComments'
p181
S'[82L]'
p182
sS'Posts'
p183
S'<Rows (4)>'
p184
sS'row2'
p185
S"<Row {'total_post_likes': None, 'were_here_count...x87\\xe5\\x93\\xb2', 'hour48_story_comments': 118L}>"
p186
sS'totalPostLikes'
p187
S'[2672L]'
p188
sS'rows'
p189
S'<Rows (13)>'
p190
sg145
g45
sg152
S'datetime.datetime(2014, 5, 3, 0, 0)'
p191
sS'r4'
p192
S'[[0L, 0L], [2213L, 20134L], [496L, 7589L], [120L, 10239L], [91L, 7427L], [30L, 3683L], [48L, 4520L], [69L, 5417L]]'
p193
sS'r5'
p194
S'[[0L, 0L], [125L, 251L], [76L, 148L], [45L, 131L], [69L, 124L], [22L, 70L], [29L, 55L], [24L, 114L]]'
p195
sS'r6'
p196
S'[[0L, 0L], [4L, 578L], [4L, 457L], [12L, 443L], [7L, 277L], [3L, 91L], [0L, 62L], [1L, 283L]]'
p197
sS'row3'
p198
S"<Row {'total_post_likes': 351482L, 'were_here_co...x87\\xe5\\x93\\xb2', 'hour48_story_comments': 119L}>"
p199
sS'r1'
p200
S'[[0L, 0L], [3L, 93L], [-28L, 1046L], [7L, 185L], [1861L, 859L], [15L, 155L], [-7L, 96L], [0L, 104L]]'
p201
sS'r2'
p202
S'[[36127L, 33645L], [35976L, 59175L], [35962L, 62911L], [24755L, 62133L], [22035L, 68431L], [15924L, 73877L], [15888L, 73160L], [13805L, 49444L]]'
p203
sS'r3'
p204
S'[[4, 3], [5, 6], [3, 7], [3, 2], [7, 2], [7, 5], [4, 1], [5, 4]]'
p205
sS'listdate'
p206
S'datetime.datetime(2014, 5, 7, 0, 0)'
p207
sS'result'
p208
S"OrderedDict([('date', ['2014/04/25', '2014/04/26...\\x87', '\\xe6\\x9f\\xaf\\xe6\\x96\\x87\\xe5\\x93\\xb2'])])"
p209
sssS'traceback'
p210
S'Traceback (most recent call last):\n  File "/Applications/web2py.app/Contents/Resources/gluon/restricted.py", line 217, in restricted\n    exec ccode in environment\n  File "/Applications/web2py.app/Contents/Resources/applications/fbmayor/controllers/ws.py", line 463, in <module>\n  File "/Applications/web2py.app/Contents/Resources/gluon/globals.py", line 372, in <lambda>\n    self._caller = lambda f: f()\n  File "/Applications/web2py.app/Contents/Resources/applications/fbmayor/controllers/ws.py", line 84, in timeseries\n    totalPostLikes.append(row2.total_post_likes-row3.total_post_likes)\nTypeError: unsupported operand type(s) for -: \'NoneType\' and \'long\'\n'
p211
s.